
u-boot:     file format elf32-littlearm


Disassembly of section .text:

01000000 <_start>:
 1000000:	ea000012 	b	1000050 <reset>
 1000004:	e59ff014 	ldr	pc, [pc, #20]	; 1000020 <_undefined_instruction>
 1000008:	e59ff014 	ldr	pc, [pc, #20]	; 1000024 <_software_interrupt>
 100000c:	e59ff014 	ldr	pc, [pc, #20]	; 1000028 <_prefetch_abort>
 1000010:	e59ff014 	ldr	pc, [pc, #20]	; 100002c <_data_abort>
 1000014:	e59ff014 	ldr	pc, [pc, #20]	; 1000030 <_not_used>
 1000018:	e59ff014 	ldr	pc, [pc, #20]	; 1000034 <_irq>
 100001c:	e59ff014 	ldr	pc, [pc, #20]	; 1000038 <_fiq>

01000020 <_undefined_instruction>:
 1000020:	01000120 	tsteq	r0, r0, lsr #2

01000024 <_software_interrupt>:
 1000024:	01000180 	smlabbeq	r0, r0, r1, r0

01000028 <_prefetch_abort>:
 1000028:	010001e0 	smlatteq	r0, r0, r1, r0

0100002c <_data_abort>:
 100002c:	01000240 	tsteq	r0, r0, asr #4

01000030 <_not_used>:
 1000030:	010002a0 	smlatbeq	r0, r0, r2, r0

01000034 <_irq>:
 1000034:	01000300 	tsteq	r0, r0, lsl #6

01000038 <_fiq>:
 1000038:	01000360 	tsteq	r0, r0, ror #6
 100003c:	deadbeef 	cdple	14, 10, cr11, cr13, cr15, {7}

01000040 <_TEXT_BASE>:
 1000040:	01000000 	tsteq	r0, r0

01000044 <_armboot_start>:
 1000044:	01000000 	tsteq	r0, r0

01000048 <_bss_start>:
 1000048:	010151f8 	strdeq	r5, [r1, -r8]

0100004c <_bss_end>:
 100004c:	01019280 	smlabbeq	r1, r0, r2, r9

01000050 <reset>:
 1000050:	e10f0000 	mrs	r0, CPSR
 1000054:	e3c0001f 	bic	r0, r0, #31
 1000058:	e38000d3 	orr	r0, r0, #211	; 0xd3
 100005c:	e129f000 	msr	CPSR_fc, r0
 1000060:	eb00001a 	bl	10000d0 <cpu_init_crit>

01000064 <relocate>:
 1000064:	e24f006c 	sub	r0, pc, #108	; 0x6c
 1000068:	e51f1030 	ldr	r1, [pc, #-48]	; 1000040 <_TEXT_BASE>
 100006c:	e1500001 	cmp	r0, r1
 1000070:	0a000007 	beq	1000094 <stack_setup>
 1000074:	e51f2038 	ldr	r2, [pc, #-56]	; 1000044 <_armboot_start>
 1000078:	e51f3038 	ldr	r3, [pc, #-56]	; 1000048 <_bss_start>
 100007c:	e0432002 	sub	r2, r3, r2
 1000080:	e0802002 	add	r2, r0, r2

01000084 <copy_loop>:
 1000084:	e8b007f8 	ldm	r0!, {r3, r4, r5, r6, r7, r8, r9, sl}
 1000088:	e8a107f8 	stmia	r1!, {r3, r4, r5, r6, r7, r8, r9, sl}
 100008c:	e1500002 	cmp	r0, r2
 1000090:	dafffffb 	ble	1000084 <copy_loop>

01000094 <stack_setup>:
 1000094:	e51f005c 	ldr	r0, [pc, #-92]	; 1000040 <_TEXT_BASE>
 1000098:	e2400a22 	sub	r0, r0, #139264	; 0x22000
 100009c:	e2400080 	sub	r0, r0, #128	; 0x80
 10000a0:	e240d00c 	sub	sp, r0, #12

010000a4 <clear_bss>:
 10000a4:	e51f0064 	ldr	r0, [pc, #-100]	; 1000048 <_bss_start>
 10000a8:	e51f1064 	ldr	r1, [pc, #-100]	; 100004c <_bss_end>
 10000ac:	e3a02000 	mov	r2, #0

010000b0 <clbss_l>:
 10000b0:	e5802000 	str	r2, [r0]
 10000b4:	e2800004 	add	r0, r0, #4
 10000b8:	e1500001 	cmp	r0, r1
 10000bc:	dafffffb 	ble	10000b0 <clbss_l>
 10000c0:	eb0000cd 	bl	10003fc <coloured_LED_init>
 10000c4:	eb0000ce 	bl	1000404 <red_LED_on>
 10000c8:	e51ff004 	ldr	pc, [pc, #-4]	; 10000cc <_start_armboot>

010000cc <_start_armboot>:
 10000cc:	01000540 	tsteq	r0, r0, asr #10

010000d0 <cpu_init_crit>:
 10000d0:	e3a00000 	mov	r0, #0
 10000d4:	ee070f17 	mcr	15, 0, r0, cr7, cr7, {0}
 10000d8:	ee080f17 	mcr	15, 0, r0, cr8, cr7, {0}
 10000dc:	ee110f10 	mrc	15, 0, r0, cr1, cr0, {0}
 10000e0:	e3c00c23 	bic	r0, r0, #8960	; 0x2300
 10000e4:	e3c00087 	bic	r0, r0, #135	; 0x87
 10000e8:	e3800002 	orr	r0, r0, #2
 10000ec:	e3800a01 	orr	r0, r0, #4096	; 0x1000
 10000f0:	ee010f10 	mcr	15, 0, r0, cr1, cr0, {0}
 10000f4:	e1a0c00e 	mov	ip, lr
 10000f8:	eb002eb9 	bl	100bbe4 <lowlevel_init>
 10000fc:	e1a0e00c 	mov	lr, ip
 1000100:	e1a0f00e 	mov	pc, lr
 1000104:	e1a00000 	nop			; (mov r0, r0)
 1000108:	e1a00000 	nop			; (mov r0, r0)
 100010c:	e1a00000 	nop			; (mov r0, r0)
 1000110:	e1a00000 	nop			; (mov r0, r0)
 1000114:	e1a00000 	nop			; (mov r0, r0)
 1000118:	e1a00000 	nop			; (mov r0, r0)
 100011c:	e1a00000 	nop			; (mov r0, r0)

01000120 <undefined_instruction>:
 1000120:	e51fd0e4 	ldr	sp, [pc, #-228]	; 1000044 <_armboot_start>
 1000124:	e24dda42 	sub	sp, sp, #270336	; 0x42000
 1000128:	e24dd088 	sub	sp, sp, #136	; 0x88
 100012c:	e58de000 	str	lr, [sp]
 1000130:	e14fe000 	mrs	lr, SPSR
 1000134:	e58de004 	str	lr, [sp, #4]
 1000138:	e3a0d013 	mov	sp, #19
 100013c:	e169f00d 	msr	SPSR_fc, sp
 1000140:	e1a0e00f 	mov	lr, pc
 1000144:	e1b0f00e 	movs	pc, lr
 1000148:	e24dd048 	sub	sp, sp, #72	; 0x48
 100014c:	e88d1fff 	stm	sp, {r0, r1, r2, r3, r4, r5, r6, r7, r8, r9, sl, fp, ip}
 1000150:	e51f2114 	ldr	r2, [pc, #-276]	; 1000044 <_armboot_start>
 1000154:	e2422a42 	sub	r2, r2, #270336	; 0x42000
 1000158:	e2422088 	sub	r2, r2, #136	; 0x88
 100015c:	e892000c 	ldm	r2, {r2, r3}
 1000160:	e28d0048 	add	r0, sp, #72	; 0x48
 1000164:	e28d5034 	add	r5, sp, #52	; 0x34
 1000168:	e1a0100e 	mov	r1, lr
 100016c:	e885000f 	stm	r5, {r0, r1, r2, r3}
 1000170:	e1a0000d 	mov	r0, sp
 1000174:	eb000207 	bl	1000998 <do_undefined_instruction>
 1000178:	e1a00000 	nop			; (mov r0, r0)
 100017c:	e1a00000 	nop			; (mov r0, r0)

01000180 <software_interrupt>:
 1000180:	e51fd144 	ldr	sp, [pc, #-324]	; 1000044 <_armboot_start>
 1000184:	e24dda42 	sub	sp, sp, #270336	; 0x42000
 1000188:	e24dd088 	sub	sp, sp, #136	; 0x88
 100018c:	e58de000 	str	lr, [sp]
 1000190:	e14fe000 	mrs	lr, SPSR
 1000194:	e58de004 	str	lr, [sp, #4]
 1000198:	e3a0d013 	mov	sp, #19
 100019c:	e169f00d 	msr	SPSR_fc, sp
 10001a0:	e1a0e00f 	mov	lr, pc
 10001a4:	e1b0f00e 	movs	pc, lr
 10001a8:	e24dd048 	sub	sp, sp, #72	; 0x48
 10001ac:	e88d1fff 	stm	sp, {r0, r1, r2, r3, r4, r5, r6, r7, r8, r9, sl, fp, ip}
 10001b0:	e51f2174 	ldr	r2, [pc, #-372]	; 1000044 <_armboot_start>
 10001b4:	e2422a42 	sub	r2, r2, #270336	; 0x42000
 10001b8:	e2422088 	sub	r2, r2, #136	; 0x88
 10001bc:	e892000c 	ldm	r2, {r2, r3}
 10001c0:	e28d0048 	add	r0, sp, #72	; 0x48
 10001c4:	e28d5034 	add	r5, sp, #52	; 0x34
 10001c8:	e1a0100e 	mov	r1, lr
 10001cc:	e885000f 	stm	r5, {r0, r1, r2, r3}
 10001d0:	e1a0000d 	mov	r0, sp
 10001d4:	eb0001e6 	bl	1000974 <do_software_interrupt>
 10001d8:	e1a00000 	nop			; (mov r0, r0)
 10001dc:	e1a00000 	nop			; (mov r0, r0)

010001e0 <prefetch_abort>:
 10001e0:	e51fd1a4 	ldr	sp, [pc, #-420]	; 1000044 <_armboot_start>
 10001e4:	e24dda42 	sub	sp, sp, #270336	; 0x42000
 10001e8:	e24dd088 	sub	sp, sp, #136	; 0x88
 10001ec:	e58de000 	str	lr, [sp]
 10001f0:	e14fe000 	mrs	lr, SPSR
 10001f4:	e58de004 	str	lr, [sp, #4]
 10001f8:	e3a0d013 	mov	sp, #19
 10001fc:	e169f00d 	msr	SPSR_fc, sp
 1000200:	e1a0e00f 	mov	lr, pc
 1000204:	e1b0f00e 	movs	pc, lr
 1000208:	e24dd048 	sub	sp, sp, #72	; 0x48
 100020c:	e88d1fff 	stm	sp, {r0, r1, r2, r3, r4, r5, r6, r7, r8, r9, sl, fp, ip}
 1000210:	e51f21d4 	ldr	r2, [pc, #-468]	; 1000044 <_armboot_start>
 1000214:	e2422a42 	sub	r2, r2, #270336	; 0x42000
 1000218:	e2422088 	sub	r2, r2, #136	; 0x88
 100021c:	e892000c 	ldm	r2, {r2, r3}
 1000220:	e28d0048 	add	r0, sp, #72	; 0x48
 1000224:	e28d5034 	add	r5, sp, #52	; 0x34
 1000228:	e1a0100e 	mov	r1, lr
 100022c:	e885000f 	stm	r5, {r0, r1, r2, r3}
 1000230:	e1a0000d 	mov	r0, sp
 1000234:	eb0001c5 	bl	1000950 <do_prefetch_abort>
 1000238:	e1a00000 	nop			; (mov r0, r0)
 100023c:	e1a00000 	nop			; (mov r0, r0)

01000240 <data_abort>:
 1000240:	e51fd204 	ldr	sp, [pc, #-516]	; 1000044 <_armboot_start>
 1000244:	e24dda42 	sub	sp, sp, #270336	; 0x42000
 1000248:	e24dd088 	sub	sp, sp, #136	; 0x88
 100024c:	e58de000 	str	lr, [sp]
 1000250:	e14fe000 	mrs	lr, SPSR
 1000254:	e58de004 	str	lr, [sp, #4]
 1000258:	e3a0d013 	mov	sp, #19
 100025c:	e169f00d 	msr	SPSR_fc, sp
 1000260:	e1a0e00f 	mov	lr, pc
 1000264:	e1b0f00e 	movs	pc, lr
 1000268:	e24dd048 	sub	sp, sp, #72	; 0x48
 100026c:	e88d1fff 	stm	sp, {r0, r1, r2, r3, r4, r5, r6, r7, r8, r9, sl, fp, ip}
 1000270:	e51f2234 	ldr	r2, [pc, #-564]	; 1000044 <_armboot_start>
 1000274:	e2422a42 	sub	r2, r2, #270336	; 0x42000
 1000278:	e2422088 	sub	r2, r2, #136	; 0x88
 100027c:	e892000c 	ldm	r2, {r2, r3}
 1000280:	e28d0048 	add	r0, sp, #72	; 0x48
 1000284:	e28d5034 	add	r5, sp, #52	; 0x34
 1000288:	e1a0100e 	mov	r1, lr
 100028c:	e885000f 	stm	r5, {r0, r1, r2, r3}
 1000290:	e1a0000d 	mov	r0, sp
 1000294:	eb0001a4 	bl	100092c <do_data_abort>
 1000298:	e1a00000 	nop			; (mov r0, r0)
 100029c:	e1a00000 	nop			; (mov r0, r0)

010002a0 <not_used>:
 10002a0:	e51fd264 	ldr	sp, [pc, #-612]	; 1000044 <_armboot_start>
 10002a4:	e24dda42 	sub	sp, sp, #270336	; 0x42000
 10002a8:	e24dd088 	sub	sp, sp, #136	; 0x88
 10002ac:	e58de000 	str	lr, [sp]
 10002b0:	e14fe000 	mrs	lr, SPSR
 10002b4:	e58de004 	str	lr, [sp, #4]
 10002b8:	e3a0d013 	mov	sp, #19
 10002bc:	e169f00d 	msr	SPSR_fc, sp
 10002c0:	e1a0e00f 	mov	lr, pc
 10002c4:	e1b0f00e 	movs	pc, lr
 10002c8:	e24dd048 	sub	sp, sp, #72	; 0x48
 10002cc:	e88d1fff 	stm	sp, {r0, r1, r2, r3, r4, r5, r6, r7, r8, r9, sl, fp, ip}
 10002d0:	e51f2294 	ldr	r2, [pc, #-660]	; 1000044 <_armboot_start>
 10002d4:	e2422a42 	sub	r2, r2, #270336	; 0x42000
 10002d8:	e2422088 	sub	r2, r2, #136	; 0x88
 10002dc:	e892000c 	ldm	r2, {r2, r3}
 10002e0:	e28d0048 	add	r0, sp, #72	; 0x48
 10002e4:	e28d5034 	add	r5, sp, #52	; 0x34
 10002e8:	e1a0100e 	mov	r1, lr
 10002ec:	e885000f 	stm	r5, {r0, r1, r2, r3}
 10002f0:	e1a0000d 	mov	r0, sp
 10002f4:	eb000183 	bl	1000908 <do_not_used>
 10002f8:	e1a00000 	nop			; (mov r0, r0)
 10002fc:	e1a00000 	nop			; (mov r0, r0)

01000300 <irq>:
 1000300:	e51fd2c4 	ldr	sp, [pc, #-708]	; 1000044 <_armboot_start>
 1000304:	e24dda42 	sub	sp, sp, #270336	; 0x42000
 1000308:	e24dd088 	sub	sp, sp, #136	; 0x88
 100030c:	e58de000 	str	lr, [sp]
 1000310:	e14fe000 	mrs	lr, SPSR
 1000314:	e58de004 	str	lr, [sp, #4]
 1000318:	e3a0d013 	mov	sp, #19
 100031c:	e169f00d 	msr	SPSR_fc, sp
 1000320:	e1a0e00f 	mov	lr, pc
 1000324:	e1b0f00e 	movs	pc, lr
 1000328:	e24dd048 	sub	sp, sp, #72	; 0x48
 100032c:	e88d1fff 	stm	sp, {r0, r1, r2, r3, r4, r5, r6, r7, r8, r9, sl, fp, ip}
 1000330:	e51f22f4 	ldr	r2, [pc, #-756]	; 1000044 <_armboot_start>
 1000334:	e2422a42 	sub	r2, r2, #270336	; 0x42000
 1000338:	e2422088 	sub	r2, r2, #136	; 0x88
 100033c:	e892000c 	ldm	r2, {r2, r3}
 1000340:	e28d0048 	add	r0, sp, #72	; 0x48
 1000344:	e28d5034 	add	r5, sp, #52	; 0x34
 1000348:	e1a0100e 	mov	r1, lr
 100034c:	e885000f 	stm	r5, {r0, r1, r2, r3}
 1000350:	e1a0000d 	mov	r0, sp
 1000354:	eb000159 	bl	10008c0 <do_irq>
 1000358:	e1a00000 	nop			; (mov r0, r0)
 100035c:	e1a00000 	nop			; (mov r0, r0)

01000360 <fiq>:
 1000360:	e51fd324 	ldr	sp, [pc, #-804]	; 1000044 <_armboot_start>
 1000364:	e24dda42 	sub	sp, sp, #270336	; 0x42000
 1000368:	e24dd088 	sub	sp, sp, #136	; 0x88
 100036c:	e58de000 	str	lr, [sp]
 1000370:	e14fe000 	mrs	lr, SPSR
 1000374:	e58de004 	str	lr, [sp, #4]
 1000378:	e3a0d013 	mov	sp, #19
 100037c:	e169f00d 	msr	SPSR_fc, sp
 1000380:	e1a0e00f 	mov	lr, pc
 1000384:	e1b0f00e 	movs	pc, lr
 1000388:	e24dd048 	sub	sp, sp, #72	; 0x48
 100038c:	e88d1fff 	stm	sp, {r0, r1, r2, r3, r4, r5, r6, r7, r8, r9, sl, fp, ip}
 1000390:	e51f2354 	ldr	r2, [pc, #-852]	; 1000044 <_armboot_start>
 1000394:	e2422a42 	sub	r2, r2, #270336	; 0x42000
 1000398:	e2422088 	sub	r2, r2, #136	; 0x88
 100039c:	e892000c 	ldm	r2, {r2, r3}
 10003a0:	e28d0048 	add	r0, sp, #72	; 0x48
 10003a4:	e28d5034 	add	r5, sp, #52	; 0x34
 10003a8:	e1a0100e 	mov	r1, lr
 10003ac:	e885000f 	stm	r5, {r0, r1, r2, r3}
 10003b0:	e1a0000d 	mov	r0, sp
 10003b4:	eb00014a 	bl	10008e4 <do_fiq>
 10003b8:	e1a00000 	nop			; (mov r0, r0)
 10003bc:	e1a00000 	nop			; (mov r0, r0)

010003c0 <sbrk>:
 10003c0:	e59f302c 	ldr	r3, [pc, #44]	; 10003f4 <sbrk+0x34>
 10003c4:	e5932000 	ldr	r2, [r3]
 10003c8:	e5931004 	ldr	r1, [r3, #4]
 10003cc:	e0800002 	add	r0, r0, r2
 10003d0:	e1500001 	cmp	r0, r1
 10003d4:	3a000004 	bcc	10003ec <sbrk+0x2c>
 10003d8:	e5931008 	ldr	r1, [r3, #8]
 10003dc:	e1500001 	cmp	r0, r1
 10003e0:	95830000 	strls	r0, [r3]
 10003e4:	91a00002 	movls	r0, r2
 10003e8:	912fff1e 	bxls	lr
 10003ec:	e3a00000 	mov	r0, #0
 10003f0:	e12fff1e 	bx	lr
 10003f4:	010151f8 	strdeq	r5, [r1, -r8]

010003f8 <__coloured_LED_init>:
 10003f8:	e12fff1e 	bx	lr

010003fc <coloured_LED_init>:
 10003fc:	e12fff1e 	bx	lr

01000400 <__red_LED_on>:
 1000400:	e12fff1e 	bx	lr

01000404 <red_LED_on>:
 1000404:	e12fff1e 	bx	lr

01000408 <__red_LED_off>:
 1000408:	e12fff1e 	bx	lr

0100040c <__green_LED_on>:
 100040c:	e12fff1e 	bx	lr

01000410 <__green_LED_off>:
 1000410:	e12fff1e 	bx	lr

01000414 <__yellow_LED_on>:
 1000414:	e12fff1e 	bx	lr

01000418 <__yellow_LED_off>:
 1000418:	e12fff1e 	bx	lr

0100041c <__blue_LED_on>:
 100041c:	e12fff1e 	bx	lr

01000420 <__blue_LED_off>:
 1000420:	e12fff1e 	bx	lr

01000424 <hang>:
 1000424:	e59f0004 	ldr	r0, [pc, #4]	; 1000430 <hang+0xc>
 1000428:	eb00224d 	bl	1008d64 <puts>
 100042c:	eafffffe 	b	100042c <hang+0x8>
 1000430:	01010dc0 	smlabteq	r1, r0, sp, r0

01000434 <display_dram_config>:
 1000434:	e92d4010 	push	{r4, lr}
 1000438:	e5983000 	ldr	r3, [r8]
 100043c:	e59f0018 	ldr	r0, [pc, #24]	; 100045c <display_dram_config+0x28>
 1000440:	e5934020 	ldr	r4, [r3, #32]
 1000444:	eb002246 	bl	1008d64 <puts>
 1000448:	e1a00004 	mov	r0, r4
 100044c:	e59f100c 	ldr	r1, [pc, #12]	; 1000460 <display_dram_config+0x2c>
 1000450:	eb002e28 	bl	100bcf8 <print_size>
 1000454:	e3a00000 	mov	r0, #0
 1000458:	e8bd8010 	pop	{r4, pc}
 100045c:	01010dea 	smlatteq	r1, sl, sp, r0
 1000460:	0101437d 	tsteq	r1, sp, ror r3

01000464 <display_banner>:
 1000464:	e92d4010 	push	{r4, lr}
 1000468:	e59f004c 	ldr	r0, [pc, #76]	; 10004bc <display_banner+0x58>
 100046c:	e59f104c 	ldr	r1, [pc, #76]	; 10004c0 <display_banner+0x5c>
 1000470:	eb00224d 	bl	1008dac <printf>
 1000474:	e59f4048 	ldr	r4, [pc, #72]	; 10004c4 <display_banner+0x60>
 1000478:	e59f0048 	ldr	r0, [pc, #72]	; 10004c8 <display_banner+0x64>
 100047c:	e59f1048 	ldr	r1, [pc, #72]	; 10004cc <display_banner+0x68>
 1000480:	eb002249 	bl	1008dac <printf>
 1000484:	e59f0044 	ldr	r0, [pc, #68]	; 10004d0 <display_banner+0x6c>
 1000488:	e59f1044 	ldr	r1, [pc, #68]	; 10004d4 <display_banner+0x70>
 100048c:	eb002246 	bl	1008dac <printf>
 1000490:	e1a01004 	mov	r1, r4
 1000494:	e59f003c 	ldr	r0, [pc, #60]	; 10004d8 <display_banner+0x74>
 1000498:	eb002243 	bl	1008dac <printf>
 100049c:	e1a01004 	mov	r1, r4
 10004a0:	e59f0034 	ldr	r0, [pc, #52]	; 10004dc <display_banner+0x78>
 10004a4:	eb002240 	bl	1008dac <printf>
 10004a8:	e1a01004 	mov	r1, r4
 10004ac:	e59f002c 	ldr	r0, [pc, #44]	; 10004e0 <display_banner+0x7c>
 10004b0:	eb00223d 	bl	1008dac <printf>
 10004b4:	e3a00000 	mov	r0, #0
 10004b8:	e8bd8010 	pop	{r4, pc}
 10004bc:	01010df2 	strdeq	r0, [r1, -r2]
 10004c0:	0101081c 	tsteq	r1, ip, lsl r8
 10004c4:	01010e7f 	tsteq	r1, pc, ror lr
 10004c8:	01010df9 	strdeq	r0, [r1, -r9]
 10004cc:	01010e40 	tsteq	r1, r0, asr #28
 10004d0:	01010e4e 	tsteq	r1, lr, asr #28
 10004d4:	01010e5c 	tsteq	r1, ip, asr lr
 10004d8:	01010e64 	tsteq	r1, r4, ror #28
 10004dc:	01010e87 	smlabbeq	r1, r7, lr, r0
 10004e0:	01010ea2 	smlatbeq	r1, r2, lr, r0

010004e4 <init_baudrate>:
 10004e4:	e92d4070 	push	{r4, r5, r6, lr}
 10004e8:	e24dd040 	sub	sp, sp, #64	; 0x40
 10004ec:	e59f0048 	ldr	r0, [pc, #72]	; 100053c <init_baudrate+0x58>
 10004f0:	e1a0100d 	mov	r1, sp
 10004f4:	e3a02040 	mov	r2, #64	; 0x40
 10004f8:	eb001ecf 	bl	100803c <getenv_r>
 10004fc:	e1a0500d 	mov	r5, sp
 1000500:	e3500000 	cmp	r0, #0
 1000504:	e1a04008 	mov	r4, r8
 1000508:	e5986000 	ldr	r6, [r8]
 100050c:	d3a00c96 	movle	r0, #38400	; 0x9600
 1000510:	da000003 	ble	1000524 <init_baudrate+0x40>
 1000514:	e1a0000d 	mov	r0, sp
 1000518:	e3a01000 	mov	r1, #0
 100051c:	e3a0200a 	mov	r2, #10
 1000520:	eb003197 	bl	100cb84 <simple_strtoul>
 1000524:	e5840008 	str	r0, [r4, #8]
 1000528:	e5943008 	ldr	r3, [r4, #8]
 100052c:	e5863000 	str	r3, [r6]
 1000530:	e3a00000 	mov	r0, #0
 1000534:	e28dd040 	add	sp, sp, #64	; 0x40
 1000538:	e8bd8070 	pop	{r4, r5, r6, pc}
 100053c:	01010eb0 	strheq	r0, [r1, -r0]

01000540 <start_armboot>:
 1000540:	e92d4070 	push	{r4, r5, r6, lr}
 1000544:	e59f41d8 	ldr	r4, [pc, #472]	; 1000724 <start_armboot+0x1e4>
 1000548:	e24dd044 	sub	sp, sp, #68	; 0x44
 100054c:	e5943000 	ldr	r3, [r4]
 1000550:	e2438a22 	sub	r8, r3, #139264	; 0x22000
 1000554:	e2488024 	sub	r8, r8, #36	; 0x24
 1000558:	e3a01000 	mov	r1, #0
 100055c:	e3a02024 	mov	r2, #36	; 0x24
 1000560:	e1a00008 	mov	r0, r8
 1000564:	eb00310a 	bl	100c994 <memset>
 1000568:	e3a01000 	mov	r1, #0
 100056c:	e2482024 	sub	r2, r8, #36	; 0x24
 1000570:	e5882000 	str	r2, [r8]
 1000574:	e3a02024 	mov	r2, #36	; 0x24
 1000578:	e5980000 	ldr	r0, [r8]
 100057c:	eb003104 	bl	100c994 <memset>
 1000580:	e59f31a0 	ldr	r3, [pc, #416]	; 1000728 <start_armboot+0x1e8>
 1000584:	e5982004 	ldr	r2, [r8, #4]
 1000588:	e3822001 	orr	r2, r2, #1
 100058c:	e5882004 	str	r2, [r8, #4]
 1000590:	e5932000 	ldr	r2, [r3]
 1000594:	e5943000 	ldr	r3, [r4]
 1000598:	e3a04000 	mov	r4, #0
 100059c:	e0632002 	rsb	r2, r3, r2
 10005a0:	e59f3184 	ldr	r3, [pc, #388]	; 100072c <start_armboot+0x1ec>
 10005a4:	e583200c 	str	r2, [r3, #12]
 10005a8:	ea000004 	b	10005c0 <start_armboot+0x80>
 10005ac:	e12fff35 	blx	r5
 10005b0:	e2844004 	add	r4, r4, #4
 10005b4:	e3500000 	cmp	r0, #0
 10005b8:	0a000000 	beq	10005c0 <start_armboot+0x80>
 10005bc:	ebffff98 	bl	1000424 <hang>
 10005c0:	e59f3168 	ldr	r3, [pc, #360]	; 1000730 <start_armboot+0x1f0>
 10005c4:	e7935004 	ldr	r5, [r3, r4]
 10005c8:	e3550000 	cmp	r5, #0
 10005cc:	1afffff6 	bne	10005ac <start_armboot+0x6c>
 10005d0:	eb000f96 	bl	1004430 <flash_init>
 10005d4:	e1a04000 	mov	r4, r0
 10005d8:	e59f0154 	ldr	r0, [pc, #340]	; 1000734 <start_armboot+0x1f4>
 10005dc:	eb0021e0 	bl	1008d64 <puts>
 10005e0:	e1a00004 	mov	r0, r4
 10005e4:	e59f114c 	ldr	r1, [pc, #332]	; 1000738 <start_armboot+0x1f8>
 10005e8:	eb002dc2 	bl	100bcf8 <print_size>
 10005ec:	e59f2148 	ldr	r2, [pc, #328]	; 100073c <start_armboot+0x1fc>
 10005f0:	e1a01005 	mov	r1, r5
 10005f4:	e1a0400d 	mov	r4, sp
 10005f8:	e5983000 	ldr	r3, [r8]
 10005fc:	e5832010 	str	r2, [r3, #16]
 1000600:	e59f311c 	ldr	r3, [pc, #284]	; 1000724 <start_armboot+0x1e4>
 1000604:	e3a02a22 	mov	r2, #139264	; 0x22000
 1000608:	e593e000 	ldr	lr, [r3]
 100060c:	e59f3118 	ldr	r3, [pc, #280]	; 100072c <start_armboot+0x1ec>
 1000610:	e24eca22 	sub	ip, lr, #139264	; 0x22000
 1000614:	e1a0000c 	mov	r0, ip
 1000618:	e583e008 	str	lr, [r3, #8]
 100061c:	e583c000 	str	ip, [r3]
 1000620:	e583c004 	str	ip, [r3, #4]
 1000624:	eb0030da 	bl	100c994 <memset>
 1000628:	eb00272c 	bl	100a2e0 <env_relocate>
 100062c:	e59f010c 	ldr	r0, [pc, #268]	; 1000740 <start_armboot+0x200>
 1000630:	e5986000 	ldr	r6, [r8]
 1000634:	eb000159 	bl	1000ba0 <getenv_IPaddr>
 1000638:	e1a0100d 	mov	r1, sp
 100063c:	e3a02040 	mov	r2, #64	; 0x40
 1000640:	e5860004 	str	r0, [r6, #4]
 1000644:	e59f00f8 	ldr	r0, [pc, #248]	; 1000744 <start_armboot+0x204>
 1000648:	eb001e7b 	bl	100803c <getenv_r>
 100064c:	e3500000 	cmp	r0, #0
 1000650:	d3a04000 	movle	r4, #0
 1000654:	e3540000 	cmp	r4, #0
 1000658:	e5986000 	ldr	r6, [r8]
 100065c:	01a00004 	moveq	r0, r4
 1000660:	0a000004 	beq	1000678 <start_armboot+0x138>
 1000664:	e1a00004 	mov	r0, r4
 1000668:	e28d1040 	add	r1, sp, #64	; 0x40
 100066c:	e3a02010 	mov	r2, #16
 1000670:	eb003143 	bl	100cb84 <simple_strtoul>
 1000674:	e20000ff 	and	r0, r0, #255	; 0xff
 1000678:	e0856006 	add	r6, r5, r6
 100067c:	e3540000 	cmp	r4, #0
 1000680:	e5c60008 	strb	r0, [r6, #8]
 1000684:	0a000003 	beq	1000698 <start_armboot+0x158>
 1000688:	e59d4040 	ldr	r4, [sp, #64]	; 0x40
 100068c:	e5d43000 	ldrb	r3, [r4]
 1000690:	e3530000 	cmp	r3, #0
 1000694:	12844001 	addne	r4, r4, #1
 1000698:	e2855001 	add	r5, r5, #1
 100069c:	e3550006 	cmp	r5, #6
 10006a0:	1affffeb 	bne	1000654 <start_armboot+0x114>
 10006a4:	eb0022a3 	bl	1009138 <devices_init>
 10006a8:	eb0027d4 	bl	100a600 <jumptable_init>
 10006ac:	eb0021ce 	bl	1008dec <console_init_r>
 10006b0:	eb002d25 	bl	100bb4c <misc_init_r>
 10006b4:	eb000027 	bl	1000758 <enable_interrupts>
 10006b8:	e59f0084 	ldr	r0, [pc, #132]	; 1000744 <start_armboot+0x204>
 10006bc:	eb001e91 	bl	1008108 <getenv>
 10006c0:	e3500000 	cmp	r0, #0
 10006c4:	0a000002 	beq	10006d4 <start_armboot+0x194>
 10006c8:	e5980000 	ldr	r0, [r8]
 10006cc:	e2800008 	add	r0, r0, #8
 10006d0:	eb00111d 	bl	1004b4c <smc_set_mac_addr>
 10006d4:	e59f006c 	ldr	r0, [pc, #108]	; 1000748 <start_armboot+0x208>
 10006d8:	eb001e8a 	bl	1008108 <getenv>
 10006dc:	e3500000 	cmp	r0, #0
 10006e0:	0a000004 	beq	10006f8 <start_armboot+0x1b8>
 10006e4:	e3a01000 	mov	r1, #0
 10006e8:	e3a02010 	mov	r2, #16
 10006ec:	eb003124 	bl	100cb84 <simple_strtoul>
 10006f0:	e59f3054 	ldr	r3, [pc, #84]	; 100074c <start_armboot+0x20c>
 10006f4:	e5830000 	str	r0, [r3]
 10006f8:	e59f0050 	ldr	r0, [pc, #80]	; 1000750 <start_armboot+0x210>
 10006fc:	eb001e81 	bl	1008108 <getenv>
 1000700:	e2501000 	subs	r1, r0, #0
 1000704:	0a000002 	beq	1000714 <start_armboot+0x1d4>
 1000708:	e59f0044 	ldr	r0, [pc, #68]	; 1000754 <start_armboot+0x214>
 100070c:	e3a02080 	mov	r2, #128	; 0x80
 1000710:	eb0000db 	bl	1000a84 <copy_filename>
 1000714:	e5980000 	ldr	r0, [r8]
 1000718:	eb000a18 	bl	1002f80 <eth_initialize>
 100071c:	eb002c71 	bl	100b8e8 <main_loop>
 1000720:	eafffffd 	b	100071c <start_armboot+0x1dc>
 1000724:	01000044 	tsteq	r0, r4, asr #32
 1000728:	01000048 	tsteq	r0, r8, asr #32
 100072c:	010151f8 	strdeq	r5, [r1, -r8]
 1000730:	010143a4 	smlatbeq	r1, r4, r3, r4
 1000734:	01010eb9 	strheq	r0, [r1, -r9]
 1000738:	0101437d 	tsteq	r1, sp, ror r3
 100073c:	37f80000 	ldrbcc	r0, [r8, r0]!
 1000740:	01010ec1 	smlabteq	r1, r1, lr, r0
 1000744:	01010ec8 	smlabteq	r1, r8, lr, r0
 1000748:	01010ed0 	ldrdeq	r0, [r1, -r0]
 100074c:	010143fc 	strdeq	r4, [r1, -ip]
 1000750:	01010ed9 	ldrdeq	r0, [r1, -r9]
 1000754:	0101775c 	tsteq	r1, ip, asr r7

01000758 <enable_interrupts>:
 1000758:	e12fff1e 	bx	lr

0100075c <disable_interrupts>:
 100075c:	e3a00000 	mov	r0, #0
 1000760:	e12fff1e 	bx	lr

01000764 <show_regs>:
 1000764:	e92d4030 	push	{r4, r5, lr}
 1000768:	e24dd088 	sub	sp, sp, #136	; 0x88
 100076c:	e1a04000 	mov	r4, r0
 1000770:	e59f1104 	ldr	r1, [pc, #260]	; 100087c <show_regs+0x118>
 1000774:	e3a02080 	mov	r2, #128	; 0x80
 1000778:	e28d0008 	add	r0, sp, #8
 100077c:	eb003096 	bl	100c9dc <memcpy>
 1000780:	e594e030 	ldr	lr, [r4, #48]	; 0x30
 1000784:	e594c02c 	ldr	ip, [r4, #44]	; 0x2c
 1000788:	e594103c 	ldr	r1, [r4, #60]	; 0x3c
 100078c:	e5942038 	ldr	r2, [r4, #56]	; 0x38
 1000790:	e5943034 	ldr	r3, [r4, #52]	; 0x34
 1000794:	e59f00e4 	ldr	r0, [pc, #228]	; 1000880 <show_regs+0x11c>
 1000798:	e58de000 	str	lr, [sp]
 100079c:	e58dc004 	str	ip, [sp, #4]
 10007a0:	e5945040 	ldr	r5, [r4, #64]	; 0x40
 10007a4:	eb002180 	bl	1008dac <printf>
 10007a8:	e5941028 	ldr	r1, [r4, #40]	; 0x28
 10007ac:	e5942024 	ldr	r2, [r4, #36]	; 0x24
 10007b0:	e5943020 	ldr	r3, [r4, #32]
 10007b4:	e59f00c8 	ldr	r0, [pc, #200]	; 1000884 <show_regs+0x120>
 10007b8:	eb00217b 	bl	1008dac <printf>
 10007bc:	e594c010 	ldr	ip, [r4, #16]
 10007c0:	e594101c 	ldr	r1, [r4, #28]
 10007c4:	e5942018 	ldr	r2, [r4, #24]
 10007c8:	e5943014 	ldr	r3, [r4, #20]
 10007cc:	e59f00b4 	ldr	r0, [pc, #180]	; 1000888 <show_regs+0x124>
 10007d0:	e58dc000 	str	ip, [sp]
 10007d4:	eb002174 	bl	1008dac <printf>
 10007d8:	e594c000 	ldr	ip, [r4]
 10007dc:	e594100c 	ldr	r1, [r4, #12]
 10007e0:	e5942008 	ldr	r2, [r4, #8]
 10007e4:	e5943004 	ldr	r3, [r4, #4]
 10007e8:	e59f009c 	ldr	r0, [pc, #156]	; 100088c <show_regs+0x128>
 10007ec:	e58dc000 	str	ip, [sp]
 10007f0:	eb00216d 	bl	1008dac <printf>
 10007f4:	e3150101 	tst	r5, #1073741824	; 0x40000000
 10007f8:	13a0205a 	movne	r2, #90	; 0x5a
 10007fc:	03a0207a 	moveq	r2, #122	; 0x7a
 1000800:	e3150202 	tst	r5, #536870912	; 0x20000000
 1000804:	e205120f 	and	r1, r5, #-268435456	; 0xf0000000
 1000808:	13a03043 	movne	r3, #67	; 0x43
 100080c:	03a03063 	moveq	r3, #99	; 0x63
 1000810:	e3150201 	tst	r5, #268435456	; 0x10000000
 1000814:	13a0c056 	movne	ip, #86	; 0x56
 1000818:	03a0c076 	moveq	ip, #118	; 0x76
 100081c:	e3510000 	cmp	r1, #0
 1000820:	b3a0104e 	movlt	r1, #78	; 0x4e
 1000824:	a3a0106e 	movge	r1, #110	; 0x6e
 1000828:	e59f0060 	ldr	r0, [pc, #96]	; 1000890 <show_regs+0x12c>
 100082c:	e58dc000 	str	ip, [sp]
 1000830:	eb00215d 	bl	1008dac <printf>
 1000834:	e5940040 	ldr	r0, [r4, #64]	; 0x40
 1000838:	e59fc054 	ldr	ip, [pc, #84]	; 1000894 <show_regs+0x130>
 100083c:	e59f2054 	ldr	r2, [pc, #84]	; 1000898 <show_regs+0x134>
 1000840:	e3100080 	tst	r0, #128	; 0x80
 1000844:	e200301f 	and	r3, r0, #31
 1000848:	e28de088 	add	lr, sp, #136	; 0x88
 100084c:	11a0100c 	movne	r1, ip
 1000850:	01a01002 	moveq	r1, r2
 1000854:	e08e3103 	add	r3, lr, r3, lsl #2
 1000858:	e3100040 	tst	r0, #64	; 0x40
 100085c:	11a0200c 	movne	r2, ip
 1000860:	e5133080 	ldr	r3, [r3, #-128]	; 0x80
 1000864:	e59fc030 	ldr	ip, [pc, #48]	; 100089c <show_regs+0x138>
 1000868:	e59f0030 	ldr	r0, [pc, #48]	; 10008a0 <show_regs+0x13c>
 100086c:	e58dc000 	str	ip, [sp]
 1000870:	eb00214d 	bl	1008dac <printf>
 1000874:	e28dd088 	add	sp, sp, #136	; 0x88
 1000878:	e8bd8030 	pop	{r4, r5, pc}
 100087c:	01010848 	tsteq	r1, r8, asr #16
 1000880:	01010ee2 	smlatteq	r1, r2, lr, r0
 1000884:	01010f27 	tsteq	r1, r7, lsr #30
 1000888:	01010f4b 	tsteq	r1, fp, asr #30
 100088c:	01010f7b 	tsteq	r1, fp, ror pc
 1000890:	01010fab 	smlatbeq	r1, fp, pc, r0
 1000894:	01010fbb 	strheq	r0, [r1, -fp]
 1000898:	010137a2 	smlatbeq	r1, r2, r7, r3
 100089c:	01012d3d 	tsteq	r1, sp, lsr sp
 10008a0:	01010fbf 	strheq	r0, [r1, -pc]

010008a4 <bad_mode>:
 10008a4:	e52de004 	push	{lr}		; (str lr, [sp, #-4]!)
 10008a8:	e59f000c 	ldr	r0, [pc, #12]	; 10008bc <bad_mode+0x18>
 10008ac:	eb0031a6 	bl	100cf4c <panic>
 10008b0:	e3a00000 	mov	r0, #0
 10008b4:	e49de004 	pop	{lr}		; (ldr lr, [sp], #4)
 10008b8:	ea002c66 	b	100ba58 <reset_cpu>
 10008bc:	01010fde 	ldrdeq	r0, [r1, -lr]

010008c0 <do_irq>:
 10008c0:	e92d4010 	push	{r4, lr}
 10008c4:	e1a04000 	mov	r4, r0
 10008c8:	e59f0010 	ldr	r0, [pc, #16]	; 10008e0 <do_irq+0x20>
 10008cc:	eb002136 	bl	1008dac <printf>
 10008d0:	e1a00004 	mov	r0, r4
 10008d4:	ebffffa2 	bl	1000764 <show_regs>
 10008d8:	e8bd4010 	pop	{r4, lr}
 10008dc:	eafffff0 	b	10008a4 <bad_mode>
 10008e0:	01010ff6 	strdeq	r0, [r1, -r6]

010008e4 <do_fiq>:
 10008e4:	e92d4010 	push	{r4, lr}
 10008e8:	e1a04000 	mov	r4, r0
 10008ec:	e59f0010 	ldr	r0, [pc, #16]	; 1000904 <do_fiq+0x20>
 10008f0:	eb00212d 	bl	1008dac <printf>
 10008f4:	e1a00004 	mov	r0, r4
 10008f8:	ebffff99 	bl	1000764 <show_regs>
 10008fc:	e8bd4010 	pop	{r4, lr}
 1000900:	eaffffe7 	b	10008a4 <bad_mode>
 1000904:	01010ff1 	strdeq	r0, [r1, -r1]

01000908 <do_not_used>:
 1000908:	e92d4010 	push	{r4, lr}
 100090c:	e1a04000 	mov	r4, r0
 1000910:	e59f0010 	ldr	r0, [pc, #16]	; 1000928 <do_not_used+0x20>
 1000914:	eb002124 	bl	1008dac <printf>
 1000918:	e1a00004 	mov	r0, r4
 100091c:	ebffff90 	bl	1000764 <show_regs>
 1000920:	e8bd4010 	pop	{r4, lr}
 1000924:	eaffffde 	b	10008a4 <bad_mode>
 1000928:	01011009 	tsteq	r1, r9

0100092c <do_data_abort>:
 100092c:	e92d4010 	push	{r4, lr}
 1000930:	e1a04000 	mov	r4, r0
 1000934:	e59f0010 	ldr	r0, [pc, #16]	; 100094c <do_data_abort+0x20>
 1000938:	eb00211b 	bl	1008dac <printf>
 100093c:	e1a00004 	mov	r0, r4
 1000940:	ebffff87 	bl	1000764 <show_regs>
 1000944:	e8bd4010 	pop	{r4, lr}
 1000948:	eaffffd5 	b	10008a4 <bad_mode>
 100094c:	01011013 	tsteq	r1, r3, lsl r0

01000950 <do_prefetch_abort>:
 1000950:	e92d4010 	push	{r4, lr}
 1000954:	e1a04000 	mov	r4, r0
 1000958:	e59f0010 	ldr	r0, [pc, #16]	; 1000970 <do_prefetch_abort+0x20>
 100095c:	eb002112 	bl	1008dac <printf>
 1000960:	e1a00004 	mov	r0, r4
 1000964:	ebffff7e 	bl	1000764 <show_regs>
 1000968:	e8bd4010 	pop	{r4, lr}
 100096c:	eaffffcc 	b	10008a4 <bad_mode>
 1000970:	0101101f 	tsteq	r1, pc, lsl r0

01000974 <do_software_interrupt>:
 1000974:	e92d4010 	push	{r4, lr}
 1000978:	e1a04000 	mov	r4, r0
 100097c:	e59f0010 	ldr	r0, [pc, #16]	; 1000994 <do_software_interrupt+0x20>
 1000980:	eb002109 	bl	1008dac <printf>
 1000984:	e1a00004 	mov	r0, r4
 1000988:	ebffff75 	bl	1000764 <show_regs>
 100098c:	e8bd4010 	pop	{r4, lr}
 1000990:	eaffffc3 	b	10008a4 <bad_mode>
 1000994:	0101102f 	tsteq	r1, pc, lsr #32

01000998 <do_undefined_instruction>:
 1000998:	e92d4010 	push	{r4, lr}
 100099c:	e1a04000 	mov	r4, r0
 10009a0:	e59f0010 	ldr	r0, [pc, #16]	; 10009b8 <do_undefined_instruction+0x20>
 10009a4:	eb002100 	bl	1008dac <printf>
 10009a8:	e1a00004 	mov	r0, r4
 10009ac:	ebffff6c 	bl	1000764 <show_regs>
 10009b0:	e8bd4010 	pop	{r4, lr}
 10009b4:	eaffffba 	b	10008a4 <bad_mode>
 10009b8:	01011043 	tsteq	r1, r3, asr #32

010009bc <__fswab16>:
 10009bc:	e1a00800 	lsl	r0, r0, #16
 10009c0:	e1a03c20 	lsr	r3, r0, #24
 10009c4:	e1830420 	orr	r0, r3, r0, lsr #8
 10009c8:	e1a00800 	lsl	r0, r0, #16
 10009cc:	e1a00820 	lsr	r0, r0, #16
 10009d0:	e12fff1e 	bx	lr

010009d4 <__fswab32>:
 10009d4:	e1a03c00 	lsl	r3, r0, #24
 10009d8:	e2002cff 	and	r2, r0, #65280	; 0xff00
 10009dc:	e1833c20 	orr	r3, r3, r0, lsr #24
 10009e0:	e1833402 	orr	r3, r3, r2, lsl #8
 10009e4:	e20008ff 	and	r0, r0, #16711680	; 0xff0000
 10009e8:	e1830420 	orr	r0, r3, r0, lsr #8
 10009ec:	e12fff1e 	bx	lr

010009f0 <startAgainTimeout>:
 10009f0:	e59f3008 	ldr	r3, [pc, #8]	; 1000a00 <startAgainTimeout+0x10>
 10009f4:	e3a02002 	mov	r2, #2
 10009f8:	e5832000 	str	r2, [r3]
 10009fc:	e12fff1e 	bx	lr
 1000a00:	01015208 	tsteq	r1, r8, lsl #4

01000a04 <startAgainHandler>:
 1000a04:	e12fff1e 	bx	lr

01000a08 <NetSetHandler>:
 1000a08:	e59f3004 	ldr	r3, [pc, #4]	; 1000a14 <NetSetHandler+0xc>
 1000a0c:	e5830004 	str	r0, [r3, #4]
 1000a10:	e12fff1e 	bx	lr
 1000a14:	01015208 	tsteq	r1, r8, lsl #4

01000a18 <NetCksum>:
 1000a18:	e3a03000 	mov	r3, #0
 1000a1c:	e1a02003 	mov	r2, r3
 1000a20:	ea000002 	b	1000a30 <NetCksum+0x18>
 1000a24:	e190c0b3 	ldrh	ip, [r0, r3]
 1000a28:	e2833002 	add	r3, r3, #2
 1000a2c:	e082200c 	add	r2, r2, ip
 1000a30:	e3510000 	cmp	r1, #0
 1000a34:	e2411001 	sub	r1, r1, #1
 1000a38:	cafffff9 	bgt	1000a24 <NetCksum+0xc>
 1000a3c:	e1a03802 	lsl	r3, r2, #16
 1000a40:	e1a03823 	lsr	r3, r3, #16
 1000a44:	e0832822 	add	r2, r3, r2, lsr #16
 1000a48:	e1a03802 	lsl	r3, r2, #16
 1000a4c:	e1a03823 	lsr	r3, r3, #16
 1000a50:	e0833822 	add	r3, r3, r2, lsr #16
 1000a54:	e1a00803 	lsl	r0, r3, #16
 1000a58:	e1a00820 	lsr	r0, r0, #16
 1000a5c:	e12fff1e 	bx	lr

01000a60 <NetCksumOk>:
 1000a60:	e52de004 	push	{lr}		; (str lr, [sp, #-4]!)
 1000a64:	ebffffeb 	bl	1000a18 <NetCksum>
 1000a68:	e59f3010 	ldr	r3, [pc, #16]	; 1000a80 <NetCksumOk+0x20>
 1000a6c:	e2800001 	add	r0, r0, #1
 1000a70:	e0003003 	and	r3, r0, r3
 1000a74:	e2730001 	rsbs	r0, r3, #1
 1000a78:	33a00000 	movcc	r0, #0
 1000a7c:	e49df004 	pop	{pc}		; (ldr pc, [sp], #4)
 1000a80:	0000fffe 	strdeq	pc, [r0], -lr

01000a84 <copy_filename>:
 1000a84:	e5d13000 	ldrb	r3, [r1]
 1000a88:	e92d4010 	push	{r4, lr}
 1000a8c:	e3530022 	cmp	r3, #34	; 0x22
 1000a90:	02811001 	addeq	r1, r1, #1
 1000a94:	02422001 	subeq	r2, r2, #1
 1000a98:	e3a03000 	mov	r3, #0
 1000a9c:	ea000000 	b	1000aa4 <copy_filename+0x20>
 1000aa0:	e540c001 	strb	ip, [r0, #-1]
 1000aa4:	e2422001 	sub	r2, r2, #1
 1000aa8:	e3520000 	cmp	r2, #0
 1000aac:	e1a04000 	mov	r4, r0
 1000ab0:	da000006 	ble	1000ad0 <copy_filename+0x4c>
 1000ab4:	e7d1c003 	ldrb	ip, [r1, r3]
 1000ab8:	e2800001 	add	r0, r0, #1
 1000abc:	e35c0000 	cmp	ip, #0
 1000ac0:	0a000002 	beq	1000ad0 <copy_filename+0x4c>
 1000ac4:	e35c0022 	cmp	ip, #34	; 0x22
 1000ac8:	e2833001 	add	r3, r3, #1
 1000acc:	1afffff3 	bne	1000aa0 <copy_filename+0x1c>
 1000ad0:	e3a03000 	mov	r3, #0
 1000ad4:	e5c43000 	strb	r3, [r4]
 1000ad8:	e8bd8010 	pop	{r4, pc}

01000adc <string_to_VLAN>:
 1000adc:	e2503000 	subs	r3, r0, #0
 1000ae0:	e52de004 	push	{lr}		; (str lr, [sp, #-4]!)
 1000ae4:	1a000001 	bne	1000af0 <string_to_VLAN+0x14>
 1000ae8:	e59f0030 	ldr	r0, [pc, #48]	; 1000b20 <string_to_VLAN+0x44>
 1000aec:	e49df004 	pop	{pc}		; (ldr pc, [sp], #4)
 1000af0:	e5d33000 	ldrb	r3, [r3]
 1000af4:	e2433030 	sub	r3, r3, #48	; 0x30
 1000af8:	e3530009 	cmp	r3, #9
 1000afc:	859f0020 	ldrhi	r0, [pc, #32]	; 1000b24 <string_to_VLAN+0x48>
 1000b00:	8a000004 	bhi	1000b18 <string_to_VLAN+0x3c>
 1000b04:	e3a01000 	mov	r1, #0
 1000b08:	e3a0200a 	mov	r2, #10
 1000b0c:	eb00301c 	bl	100cb84 <simple_strtoul>
 1000b10:	e1a00800 	lsl	r0, r0, #16
 1000b14:	e1a00820 	lsr	r0, r0, #16
 1000b18:	e49de004 	pop	{lr}		; (ldr lr, [sp], #4)
 1000b1c:	eaffffa6 	b	10009bc <__fswab16>
 1000b20:	0000ff0f 	andeq	pc, r0, pc, lsl #30
 1000b24:	00000fff 	strdeq	r0, [r0], -pc

01000b28 <getenv_VLAN>:
 1000b28:	e52de004 	push	{lr}		; (str lr, [sp, #-4]!)
 1000b2c:	eb001d75 	bl	1008108 <getenv>
 1000b30:	e49de004 	pop	{lr}		; (ldr lr, [sp], #4)
 1000b34:	eaffffe8 	b	1000adc <string_to_VLAN>

01000b38 <string_to_ip>:
 1000b38:	e92d4071 	push	{r0, r4, r5, r6, lr}
 1000b3c:	e2504000 	subs	r4, r0, #0
 1000b40:	01a00004 	moveq	r0, r4
 1000b44:	0a000014 	beq	1000b9c <string_to_ip+0x64>
 1000b48:	e3a05000 	mov	r5, #0
 1000b4c:	e1a06005 	mov	r6, r5
 1000b50:	e3540000 	cmp	r4, #0
 1000b54:	e1a00004 	mov	r0, r4
 1000b58:	e1a0100d 	mov	r1, sp
 1000b5c:	e3a0200a 	mov	r2, #10
 1000b60:	0a000000 	beq	1000b68 <string_to_ip+0x30>
 1000b64:	eb003006 	bl	100cb84 <simple_strtoul>
 1000b68:	e20000ff 	and	r0, r0, #255	; 0xff
 1000b6c:	e3540000 	cmp	r4, #0
 1000b70:	e2855001 	add	r5, r5, #1
 1000b74:	e1806406 	orr	r6, r0, r6, lsl #8
 1000b78:	0a000003 	beq	1000b8c <string_to_ip+0x54>
 1000b7c:	e59d4000 	ldr	r4, [sp]
 1000b80:	e5d43000 	ldrb	r3, [r4]
 1000b84:	e3530000 	cmp	r3, #0
 1000b88:	12844001 	addne	r4, r4, #1
 1000b8c:	e3550004 	cmp	r5, #4
 1000b90:	1affffee 	bne	1000b50 <string_to_ip+0x18>
 1000b94:	e1a00006 	mov	r0, r6
 1000b98:	ebffff8d 	bl	10009d4 <__fswab32>
 1000b9c:	e8bd8078 	pop	{r3, r4, r5, r6, pc}

01000ba0 <getenv_IPaddr>:
 1000ba0:	e52de004 	push	{lr}		; (str lr, [sp, #-4]!)
 1000ba4:	eb001d57 	bl	1008108 <getenv>
 1000ba8:	e49de004 	pop	{lr}		; (ldr lr, [sp], #4)
 1000bac:	eaffffe1 	b	1000b38 <string_to_ip>

01000bb0 <NetEthHdrSize>:
 1000bb0:	e59f3030 	ldr	r3, [pc, #48]	; 1000be8 <NetEthHdrSize+0x38>
 1000bb4:	e52de004 	push	{lr}		; (str lr, [sp, #-4]!)
 1000bb8:	e1d300b0 	ldrh	r0, [r3]
 1000bbc:	ebffff7e 	bl	10009bc <__fswab16>
 1000bc0:	e59f2024 	ldr	r2, [pc, #36]	; 1000bec <NetEthHdrSize+0x3c>
 1000bc4:	e59f3024 	ldr	r3, [pc, #36]	; 1000bf0 <NetEthHdrSize+0x40>
 1000bc8:	e1500002 	cmp	r0, r2
 1000bcc:	01a00003 	moveq	r0, r3
 1000bd0:	e1a00a00 	lsl	r0, r0, #20
 1000bd4:	e1a00a20 	lsr	r0, r0, #20
 1000bd8:	e1500003 	cmp	r0, r3
 1000bdc:	03a0000e 	moveq	r0, #14
 1000be0:	13a00012 	movne	r0, #18
 1000be4:	e49df004 	pop	{pc}		; (ldr pc, [sp], #4)
 1000be8:	010143d0 	ldrdeq	r4, [r1, -r0]
 1000bec:	0000ffff 	strdeq	pc, [r0], -pc
 1000bf0:	00000fff 	strdeq	r0, [r0], -pc

01000bf4 <VLAN_to_string>:
 1000bf4:	e1a00800 	lsl	r0, r0, #16
 1000bf8:	e92d4010 	push	{r4, lr}
 1000bfc:	e1a00820 	lsr	r0, r0, #16
 1000c00:	e1a04001 	mov	r4, r1
 1000c04:	ebffff6c 	bl	10009bc <__fswab16>
 1000c08:	e59f3038 	ldr	r3, [pc, #56]	; 1000c48 <VLAN_to_string+0x54>
 1000c0c:	e1500003 	cmp	r0, r3
 1000c10:	0a000002 	beq	1000c20 <VLAN_to_string+0x2c>
 1000c14:	e2433a0f 	sub	r3, r3, #61440	; 0xf000
 1000c18:	e1500003 	cmp	r0, r3
 1000c1c:	1a000003 	bne	1000c30 <VLAN_to_string+0x3c>
 1000c20:	e1a00004 	mov	r0, r4
 1000c24:	e59f1020 	ldr	r1, [pc, #32]	; 1000c4c <VLAN_to_string+0x58>
 1000c28:	e8bd4010 	pop	{r4, lr}
 1000c2c:	ea002e7e 	b	100c62c <strcpy>
 1000c30:	e1a02a00 	lsl	r2, r0, #20
 1000c34:	e1a02a22 	lsr	r2, r2, #20
 1000c38:	e1a00004 	mov	r0, r4
 1000c3c:	e59f100c 	ldr	r1, [pc, #12]	; 1000c50 <VLAN_to_string+0x5c>
 1000c40:	e8bd4010 	pop	{r4, lr}
 1000c44:	ea0031dd 	b	100d3c0 <sprintf>
 1000c48:	0000ffff 	strdeq	pc, [r0], -pc
 1000c4c:	01011146 	tsteq	r1, r6, asr #2
 1000c50:	01011154 	tsteq	r1, r4, asr r1

01000c54 <ip_to_string>:
 1000c54:	e92d4013 	push	{r0, r1, r4, lr}
 1000c58:	e1a04001 	mov	r4, r1
 1000c5c:	ebffff5c 	bl	10009d4 <__fswab32>
 1000c60:	e59f102c 	ldr	r1, [pc, #44]	; 1000c94 <ip_to_string+0x40>
 1000c64:	e1a0c000 	mov	ip, r0
 1000c68:	e1a03820 	lsr	r3, r0, #16
 1000c6c:	e1a0e420 	lsr	lr, r0, #8
 1000c70:	e20ee0ff 	and	lr, lr, #255	; 0xff
 1000c74:	e1a02c2c 	lsr	r2, ip, #24
 1000c78:	e1a00004 	mov	r0, r4
 1000c7c:	e20cc0ff 	and	ip, ip, #255	; 0xff
 1000c80:	e20330ff 	and	r3, r3, #255	; 0xff
 1000c84:	e58de000 	str	lr, [sp]
 1000c88:	e58dc004 	str	ip, [sp, #4]
 1000c8c:	eb0031cb 	bl	100d3c0 <sprintf>
 1000c90:	e8bd801c 	pop	{r2, r3, r4, pc}
 1000c94:	0101114b 	tsteq	r1, fp, asr #2

01000c98 <print_IPaddr>:
 1000c98:	e92d401f 	push	{r0, r1, r2, r3, r4, lr}
 1000c9c:	e1a0100d 	mov	r1, sp
 1000ca0:	ebffffeb 	bl	1000c54 <ip_to_string>
 1000ca4:	e1a0000d 	mov	r0, sp
 1000ca8:	e1a0400d 	mov	r4, sp
 1000cac:	eb00202c 	bl	1008d64 <puts>
 1000cb0:	e8bd801f 	pop	{r0, r1, r2, r3, r4, pc}

01000cb4 <NetCopyIP>:
 1000cb4:	e3a02004 	mov	r2, #4
 1000cb8:	ea002f47 	b	100c9dc <memcpy>

01000cbc <NetSetIP>:
 1000cbc:	e92d46f1 	push	{r0, r4, r5, r6, r7, r9, sl, lr}
 1000cc0:	e59dc020 	ldr	ip, [sp, #32]
 1000cc4:	e1a05002 	mov	r5, r2
 1000cc8:	e31c0001 	tst	ip, #1
 1000ccc:	13a02000 	movne	r2, #0
 1000cd0:	e1a0a003 	mov	sl, r3
 1000cd4:	128c301c 	addne	r3, ip, #28
 1000cd8:	e1a0c80c 	lsl	ip, ip, #16
 1000cdc:	e1a04000 	mov	r4, r0
 1000ce0:	e58d1000 	str	r1, [sp]
 1000ce4:	e3a06000 	mov	r6, #0
 1000ce8:	17c02003 	strbne	r2, [r0, r3]
 1000cec:	e28c0707 	add	r0, ip, #1835008	; 0x1c0000
 1000cf0:	e3a03045 	mov	r3, #69	; 0x45
 1000cf4:	e5c43000 	strb	r3, [r4]
 1000cf8:	e5c46001 	strb	r6, [r4, #1]
 1000cfc:	e1a00820 	lsr	r0, r0, #16
 1000d00:	e1a0782c 	lsr	r7, ip, #16
 1000d04:	ebffff2c 	bl	10009bc <__fswab16>
 1000d08:	e59f90a0 	ldr	r9, [pc, #160]	; 1000db0 <NetSetIP+0xf4>
 1000d0c:	e1a05805 	lsl	r5, r5, #16
 1000d10:	e2877008 	add	r7, r7, #8
 1000d14:	e1a07807 	lsl	r7, r7, #16
 1000d18:	e1c400b2 	strh	r0, [r4, #2]
 1000d1c:	e5993008 	ldr	r3, [r9, #8]
 1000d20:	e1a00803 	lsl	r0, r3, #16
 1000d24:	e1a00820 	lsr	r0, r0, #16
 1000d28:	e2833001 	add	r3, r3, #1
 1000d2c:	e5893008 	str	r3, [r9, #8]
 1000d30:	ebffff21 	bl	10009bc <__fswab16>
 1000d34:	e3e03000 	mvn	r3, #0
 1000d38:	e5c43008 	strb	r3, [r4, #8]
 1000d3c:	e2833012 	add	r3, r3, #18
 1000d40:	e5c43009 	strb	r3, [r4, #9]
 1000d44:	e3a03040 	mov	r3, #64	; 0x40
 1000d48:	e1c430b6 	strh	r3, [r4, #6]
 1000d4c:	e289100c 	add	r1, r9, #12
 1000d50:	e1c460ba 	strh	r6, [r4, #10]
 1000d54:	e1c400b4 	strh	r0, [r4, #4]
 1000d58:	e284000c 	add	r0, r4, #12
 1000d5c:	ebffffd4 	bl	1000cb4 <NetCopyIP>
 1000d60:	e1a0100d 	mov	r1, sp
 1000d64:	e2840010 	add	r0, r4, #16
 1000d68:	ebffffd1 	bl	1000cb4 <NetCopyIP>
 1000d6c:	e1a0080a 	lsl	r0, sl, #16
 1000d70:	e1a00820 	lsr	r0, r0, #16
 1000d74:	ebffff10 	bl	10009bc <__fswab16>
 1000d78:	e1c401b4 	strh	r0, [r4, #20]
 1000d7c:	e1a00825 	lsr	r0, r5, #16
 1000d80:	ebffff0d 	bl	10009bc <__fswab16>
 1000d84:	e1c401b6 	strh	r0, [r4, #22]
 1000d88:	e1a00827 	lsr	r0, r7, #16
 1000d8c:	ebffff0a 	bl	10009bc <__fswab16>
 1000d90:	e1c461ba 	strh	r6, [r4, #26]
 1000d94:	e3a0100a 	mov	r1, #10
 1000d98:	e1c401b8 	strh	r0, [r4, #24]
 1000d9c:	e1a00004 	mov	r0, r4
 1000da0:	ebffff1c 	bl	1000a18 <NetCksum>
 1000da4:	e1e00000 	mvn	r0, r0
 1000da8:	e1c400ba 	strh	r0, [r4, #10]
 1000dac:	e8bd86f8 	pop	{r3, r4, r5, r6, r7, r9, sl, pc}
 1000db0:	01015208 	tsteq	r1, r8, lsl #4

01000db4 <NetSetEther>:
 1000db4:	e59f3098 	ldr	r3, [pc, #152]	; 1000e54 <NetSetEther+0xa0>
 1000db8:	e92d40f0 	push	{r4, r5, r6, r7, lr}
 1000dbc:	e1a04000 	mov	r4, r0
 1000dc0:	e1d300b0 	ldrh	r0, [r3]
 1000dc4:	e1a05002 	mov	r5, r2
 1000dc8:	e1a07001 	mov	r7, r1
 1000dcc:	ebfffefa 	bl	10009bc <__fswab16>
 1000dd0:	e1a01007 	mov	r1, r7
 1000dd4:	e59f707c 	ldr	r7, [pc, #124]	; 1000e58 <NetSetEther+0xa4>
 1000dd8:	e59f607c 	ldr	r6, [pc, #124]	; 1000e5c <NetSetEther+0xa8>
 1000ddc:	e3a02006 	mov	r2, #6
 1000de0:	e1a05805 	lsl	r5, r5, #16
 1000de4:	e1500007 	cmp	r0, r7
 1000de8:	11a07000 	movne	r7, r0
 1000dec:	e1a00004 	mov	r0, r4
 1000df0:	01a07006 	moveq	r7, r6
 1000df4:	eb002ef8 	bl	100c9dc <memcpy>
 1000df8:	e2840006 	add	r0, r4, #6
 1000dfc:	e59f105c 	ldr	r1, [pc, #92]	; 1000e60 <NetSetEther+0xac>
 1000e00:	e3a02006 	mov	r2, #6
 1000e04:	eb002ef4 	bl	100c9dc <memcpy>
 1000e08:	e1a00a07 	lsl	r0, r7, #20
 1000e0c:	e1a00a20 	lsr	r0, r0, #20
 1000e10:	e1500006 	cmp	r0, r6
 1000e14:	1a000004 	bne	1000e2c <NetSetEther+0x78>
 1000e18:	e1a00825 	lsr	r0, r5, #16
 1000e1c:	ebfffee6 	bl	10009bc <__fswab16>
 1000e20:	e3a0300e 	mov	r3, #14
 1000e24:	e1c400bc 	strh	r0, [r4, #12]
 1000e28:	ea000007 	b	1000e4c <NetSetEther+0x98>
 1000e2c:	e3a03081 	mov	r3, #129	; 0x81
 1000e30:	e1c430bc 	strh	r3, [r4, #12]
 1000e34:	ebfffee0 	bl	10009bc <__fswab16>
 1000e38:	e1c400be 	strh	r0, [r4, #14]
 1000e3c:	e1a00825 	lsr	r0, r5, #16
 1000e40:	ebfffedd 	bl	10009bc <__fswab16>
 1000e44:	e3a03012 	mov	r3, #18
 1000e48:	e1c401b0 	strh	r0, [r4, #16]
 1000e4c:	e1a00003 	mov	r0, r3
 1000e50:	e8bd80f0 	pop	{r4, r5, r6, r7, pc}
 1000e54:	010143d0 	ldrdeq	r4, [r1, -r0]
 1000e58:	0000ffff 	strdeq	pc, [r0], -pc
 1000e5c:	00000fff 	strdeq	r0, [r0], -pc
 1000e60:	01015218 	tsteq	r1, r8, lsl r2

01000e64 <NetReadIP>:
 1000e64:	e92d4001 	push	{r0, lr}
 1000e68:	e1a01000 	mov	r1, r0
 1000e6c:	e3a02004 	mov	r2, #4
 1000e70:	e1a0000d 	mov	r0, sp
 1000e74:	eb002ed8 	bl	100c9dc <memcpy>
 1000e78:	e59d0000 	ldr	r0, [sp]
 1000e7c:	e8bd8008 	pop	{r3, pc}

01000e80 <PingHandler>:
 1000e80:	e52de004 	push	{lr}		; (str lr, [sp, #-4]!)
 1000e84:	e280000c 	add	r0, r0, #12
 1000e88:	ebfffff5 	bl	1000e64 <NetReadIP>
 1000e8c:	e59f3010 	ldr	r3, [pc, #16]	; 1000ea4 <PingHandler+0x24>
 1000e90:	e5932018 	ldr	r2, [r3, #24]
 1000e94:	e1500002 	cmp	r0, r2
 1000e98:	03a02003 	moveq	r2, #3
 1000e9c:	05832000 	streq	r2, [r3]
 1000ea0:	e49df004 	pop	{pc}		; (ldr pc, [sp], #4)
 1000ea4:	01015208 	tsteq	r1, r8, lsl #4

01000ea8 <NetWriteIP>:
 1000ea8:	e92d4001 	push	{r0, lr}
 1000eac:	e28d3004 	add	r3, sp, #4
 1000eb0:	e5231004 	str	r1, [r3, #-4]!
 1000eb4:	e3a02004 	mov	r2, #4
 1000eb8:	e1a0100d 	mov	r1, sp
 1000ebc:	eb002ec6 	bl	100c9dc <memcpy>
 1000ec0:	e8bd8008 	pop	{r3, pc}

01000ec4 <NetSendPacket>:
 1000ec4:	ea001190 	b	100550c <eth_send>

01000ec8 <ArpRequest>:
 1000ec8:	e92d40f0 	push	{r4, r5, r6, r7, lr}
 1000ecc:	e59f50d0 	ldr	r5, [pc, #208]	; 1000fa4 <ArpRequest+0xdc>
 1000ed0:	e59f10d0 	ldr	r1, [pc, #208]	; 1000fa8 <ArpRequest+0xe0>
 1000ed4:	e595601c 	ldr	r6, [r5, #28]
 1000ed8:	e59f20cc 	ldr	r2, [pc, #204]	; 1000fac <ArpRequest+0xe4>
 1000edc:	e1a00006 	mov	r0, r6
 1000ee0:	ebffffb3 	bl	1000db4 <NetSetEther>
 1000ee4:	e3a03006 	mov	r3, #6
 1000ee8:	e3a01c01 	mov	r1, #256	; 0x100
 1000eec:	e3a02004 	mov	r2, #4
 1000ef0:	e0864000 	add	r4, r6, r0
 1000ef4:	e18610b0 	strh	r1, [r6, r0]
 1000ef8:	e5c42005 	strb	r2, [r4, #5]
 1000efc:	e3a01008 	mov	r1, #8
 1000f00:	e1a02003 	mov	r2, r3
 1000f04:	e5c43004 	strb	r3, [r4, #4]
 1000f08:	e2847008 	add	r7, r4, #8
 1000f0c:	e3a03c01 	mov	r3, #256	; 0x100
 1000f10:	e1c430b6 	strh	r3, [r4, #6]
 1000f14:	e1c410b2 	strh	r1, [r4, #2]
 1000f18:	e1a00007 	mov	r0, r7
 1000f1c:	e2851010 	add	r1, r5, #16
 1000f20:	eb002ead 	bl	100c9dc <memcpy>
 1000f24:	e595100c 	ldr	r1, [r5, #12]
 1000f28:	e284000e 	add	r0, r4, #14
 1000f2c:	ebffffdd 	bl	1000ea8 <NetWriteIP>
 1000f30:	e3a03000 	mov	r3, #0
 1000f34:	e5c43017 	strb	r3, [r4, #23]
 1000f38:	e5c43012 	strb	r3, [r4, #18]
 1000f3c:	e5c43013 	strb	r3, [r4, #19]
 1000f40:	e5c43014 	strb	r3, [r4, #20]
 1000f44:	e5c43015 	strb	r3, [r4, #21]
 1000f48:	e5c43016 	strb	r3, [r4, #22]
 1000f4c:	e5953020 	ldr	r3, [r5, #32]
 1000f50:	e595100c 	ldr	r1, [r5, #12]
 1000f54:	e5952024 	ldr	r2, [r5, #36]	; 0x24
 1000f58:	e0231001 	eor	r1, r3, r1
 1000f5c:	e1110002 	tst	r1, r2
 1000f60:	0a000005 	beq	1000f7c <ArpRequest+0xb4>
 1000f64:	e5953028 	ldr	r3, [r5, #40]	; 0x28
 1000f68:	e3530000 	cmp	r3, #0
 1000f6c:	1a000002 	bne	1000f7c <ArpRequest+0xb4>
 1000f70:	e59f0038 	ldr	r0, [pc, #56]	; 1000fb0 <ArpRequest+0xe8>
 1000f74:	eb001f7a 	bl	1008d64 <puts>
 1000f78:	e5953020 	ldr	r3, [r5, #32]
 1000f7c:	e585302c 	str	r3, [r5, #44]	; 0x2c
 1000f80:	e59f501c 	ldr	r5, [pc, #28]	; 1000fa4 <ArpRequest+0xdc>
 1000f84:	e2870010 	add	r0, r7, #16
 1000f88:	e595102c 	ldr	r1, [r5, #44]	; 0x2c
 1000f8c:	ebffffc5 	bl	1000ea8 <NetWriteIP>
 1000f90:	e595001c 	ldr	r0, [r5, #28]
 1000f94:	e260101c 	rsb	r1, r0, #28
 1000f98:	e0811004 	add	r1, r1, r4
 1000f9c:	e8bd40f0 	pop	{r4, r5, r6, r7, lr}
 1000fa0:	ea001159 	b	100550c <eth_send>
 1000fa4:	01015208 	tsteq	r1, r8, lsl #4
 1000fa8:	010143d4 	ldrdeq	r4, [r1, -r4]
 1000fac:	00000806 	andeq	r0, r0, r6, lsl #16
 1000fb0:	01011157 	tsteq	r1, r7, asr r1

01000fb4 <NetReceive>:
 1000fb4:	e59f3520 	ldr	r3, [pc, #1312]	; 10014dc <NetReceive+0x528>
 1000fb8:	e351000d 	cmp	r1, #13
 1000fbc:	e92d4ef1 	push	{r0, r4, r5, r6, r7, r9, sl, fp, lr}
 1000fc0:	e1a06001 	mov	r6, r1
 1000fc4:	e1a05000 	mov	r5, r0
 1000fc8:	e5831034 	str	r1, [r3, #52]	; 0x34
 1000fcc:	e5830030 	str	r0, [r3, #48]	; 0x30
 1000fd0:	da00013f 	ble	10014d4 <NetReceive+0x520>
 1000fd4:	e59f7504 	ldr	r7, [pc, #1284]	; 10014e0 <NetReceive+0x52c>
 1000fd8:	e59f9504 	ldr	r9, [pc, #1284]	; 10014e4 <NetReceive+0x530>
 1000fdc:	e1d700b0 	ldrh	r0, [r7]
 1000fe0:	ebfffe75 	bl	10009bc <__fswab16>
 1000fe4:	e1a04000 	mov	r4, r0
 1000fe8:	e1d700ba 	ldrh	r0, [r7, #10]
 1000fec:	ebfffe72 	bl	10009bc <__fswab16>
 1000ff0:	e59f74f0 	ldr	r7, [pc, #1264]	; 10014e8 <NetReceive+0x534>
 1000ff4:	e1540009 	cmp	r4, r9
 1000ff8:	11a0b004 	movne	fp, r4
 1000ffc:	01a0b007 	moveq	fp, r7
 1001000:	e1500009 	cmp	r0, r9
 1001004:	11a09000 	movne	r9, r0
 1001008:	e1d500bc 	ldrh	r0, [r5, #12]
 100100c:	01a09007 	moveq	r9, r7
 1001010:	ebfffe69 	bl	10009bc <__fswab16>
 1001014:	e59f34d0 	ldr	r3, [pc, #1232]	; 10014ec <NetReceive+0x538>
 1001018:	e1500003 	cmp	r0, r3
 100101c:	e1a0a000 	mov	sl, r0
 1001020:	d1d501b4 	ldrhle	r0, [r5, #20]
 1001024:	d2466016 	suble	r6, r6, #22
 1001028:	d2854016 	addle	r4, r5, #22
 100102c:	da000010 	ble	1001074 <NetReceive+0xc0>
 1001030:	e3500c81 	cmp	r0, #33024	; 0x8100
 1001034:	1246600e 	subne	r6, r6, #14
 1001038:	1285400e 	addne	r4, r5, #14
 100103c:	1a00000e 	bne	100107c <NetReceive+0xc8>
 1001040:	e3560011 	cmp	r6, #17
 1001044:	da000122 	ble	10014d4 <NetReceive+0x520>
 1001048:	e1a04a04 	lsl	r4, r4, #20
 100104c:	e1a04a24 	lsr	r4, r4, #20
 1001050:	e1540007 	cmp	r4, r7
 1001054:	0a00011e 	beq	10014d4 <NetReceive+0x520>
 1001058:	e1d500be 	ldrh	r0, [r5, #14]
 100105c:	ebfffe56 	bl	10009bc <__fswab16>
 1001060:	e2466012 	sub	r6, r6, #18
 1001064:	e2854012 	add	r4, r5, #18
 1001068:	e1a07a00 	lsl	r7, r0, #20
 100106c:	e1d501b0 	ldrh	r0, [r5, #16]
 1001070:	e1a07a27 	lsr	r7, r7, #20
 1001074:	ebfffe50 	bl	10009bc <__fswab16>
 1001078:	e1a0a000 	mov	sl, r0
 100107c:	e1a0ba0b 	lsl	fp, fp, #20
 1001080:	e59f3460 	ldr	r3, [pc, #1120]	; 10014e8 <NetReceive+0x534>
 1001084:	e1a0ba2b 	lsr	fp, fp, #20
 1001088:	e15b0003 	cmp	fp, r3
 100108c:	0a000003 	beq	10010a0 <NetReceive+0xec>
 1001090:	e1570003 	cmp	r7, r3
 1001094:	00097007 	andeq	r7, r9, r7
 1001098:	e157000b 	cmp	r7, fp
 100109c:	1a00010c 	bne	10014d4 <NetReceive+0x520>
 10010a0:	e59f3448 	ldr	r3, [pc, #1096]	; 10014f0 <NetReceive+0x53c>
 10010a4:	e15a0003 	cmp	sl, r3
 10010a8:	0a000005 	beq	10010c4 <NetReceive+0x110>
 10010ac:	e59f3440 	ldr	r3, [pc, #1088]	; 10014f4 <NetReceive+0x540>
 10010b0:	e15a0003 	cmp	sl, r3
 10010b4:	0a00005b 	beq	1001228 <NetReceive+0x274>
 10010b8:	e35a0b02 	cmp	sl, #2048	; 0x800
 10010bc:	1a000104 	bne	10014d4 <NetReceive+0x520>
 10010c0:	ea000087 	b	10012e4 <NetReceive+0x330>
 10010c4:	e356001b 	cmp	r6, #27
 10010c8:	da000058 	ble	1001230 <NetReceive+0x27c>
 10010cc:	e1d400b0 	ldrh	r0, [r4]
 10010d0:	ebfffe39 	bl	10009bc <__fswab16>
 10010d4:	e3500001 	cmp	r0, #1
 10010d8:	1a0000fd 	bne	10014d4 <NetReceive+0x520>
 10010dc:	e1d400b2 	ldrh	r0, [r4, #2]
 10010e0:	ebfffe35 	bl	10009bc <__fswab16>
 10010e4:	e3500b02 	cmp	r0, #2048	; 0x800
 10010e8:	1a0000f9 	bne	10014d4 <NetReceive+0x520>
 10010ec:	e5d49004 	ldrb	r9, [r4, #4]
 10010f0:	e3590006 	cmp	r9, #6
 10010f4:	1a0000f6 	bne	10014d4 <NetReceive+0x520>
 10010f8:	e5d43005 	ldrb	r3, [r4, #5]
 10010fc:	e3530004 	cmp	r3, #4
 1001100:	1a0000f3 	bne	10014d4 <NetReceive+0x520>
 1001104:	e59f73d0 	ldr	r7, [pc, #976]	; 10014dc <NetReceive+0x528>
 1001108:	e597300c 	ldr	r3, [r7, #12]
 100110c:	e3530000 	cmp	r3, #0
 1001110:	0a0000ef 	beq	10014d4 <NetReceive+0x520>
 1001114:	e284b018 	add	fp, r4, #24
 1001118:	e1a0000b 	mov	r0, fp
 100111c:	ebffff50 	bl	1000e64 <NetReadIP>
 1001120:	e597300c 	ldr	r3, [r7, #12]
 1001124:	e2846008 	add	r6, r4, #8
 1001128:	e1500003 	cmp	r0, r3
 100112c:	1a0000e8 	bne	10014d4 <NetReceive+0x520>
 1001130:	e1d400b6 	ldrh	r0, [r4, #6]
 1001134:	ebfffe20 	bl	10009bc <__fswab16>
 1001138:	e3500001 	cmp	r0, #1
 100113c:	0a000002 	beq	100114c <NetReceive+0x198>
 1001140:	e3500002 	cmp	r0, #2
 1001144:	1a0000e2 	bne	10014d4 <NetReceive+0x520>
 1001148:	ea00001a 	b	10011b8 <NetReceive+0x204>
 100114c:	e1a0200a 	mov	r2, sl
 1001150:	e2851006 	add	r1, r5, #6
 1001154:	e1a00005 	mov	r0, r5
 1001158:	ebffff15 	bl	1000db4 <NetSetEther>
 100115c:	e3a02c02 	mov	r2, #512	; 0x200
 1001160:	e1c420b6 	strh	r2, [r4, #6]
 1001164:	e284a00e 	add	sl, r4, #14
 1001168:	e1a02009 	mov	r2, r9
 100116c:	e1a01006 	mov	r1, r6
 1001170:	e1a03000 	mov	r3, r0
 1001174:	e2840012 	add	r0, r4, #18
 1001178:	e58d3000 	str	r3, [sp]
 100117c:	eb002e16 	bl	100c9dc <memcpy>
 1001180:	e1a0000b 	mov	r0, fp
 1001184:	e1a0100a 	mov	r1, sl
 1001188:	ebfffec9 	bl	1000cb4 <NetCopyIP>
 100118c:	e1a02009 	mov	r2, r9
 1001190:	e2871010 	add	r1, r7, #16
 1001194:	e1a00006 	mov	r0, r6
 1001198:	eb002e0f 	bl	100c9dc <memcpy>
 100119c:	e1a0000a 	mov	r0, sl
 10011a0:	e287100c 	add	r1, r7, #12
 10011a4:	ebfffec2 	bl	1000cb4 <NetCopyIP>
 10011a8:	e59d3000 	ldr	r3, [sp]
 10011ac:	e1a00005 	mov	r0, r5
 10011b0:	e283101c 	add	r1, r3, #28
 10011b4:	ea0000b2 	b	1001484 <NetReceive+0x4d0>
 10011b8:	e59f431c 	ldr	r4, [pc, #796]	; 10014dc <NetReceive+0x528>
 10011bc:	e5943020 	ldr	r3, [r4, #32]
 10011c0:	e3530000 	cmp	r3, #0
 10011c4:	0a0000c2 	beq	10014d4 <NetReceive+0x520>
 10011c8:	e5943038 	ldr	r3, [r4, #56]	; 0x38
 10011cc:	e3530000 	cmp	r3, #0
 10011d0:	0a0000bf 	beq	10014d4 <NetReceive+0x520>
 10011d4:	e2860006 	add	r0, r6, #6
 10011d8:	ebffff21 	bl	1000e64 <NetReadIP>
 10011dc:	e594302c 	ldr	r3, [r4, #44]	; 0x2c
 10011e0:	e1500003 	cmp	r0, r3
 10011e4:	1a0000ba 	bne	10014d4 <NetReceive+0x520>
 10011e8:	e1a01006 	mov	r1, r6
 10011ec:	e3a02006 	mov	r2, #6
 10011f0:	e5940038 	ldr	r0, [r4, #56]	; 0x38
 10011f4:	eb002df8 	bl	100c9dc <memcpy>
 10011f8:	e5941038 	ldr	r1, [r4, #56]	; 0x38
 10011fc:	e3a02006 	mov	r2, #6
 1001200:	e594003c 	ldr	r0, [r4, #60]	; 0x3c
 1001204:	eb002df4 	bl	100c9dc <memcpy>
 1001208:	e594003c 	ldr	r0, [r4, #60]	; 0x3c
 100120c:	e5941040 	ldr	r1, [r4, #64]	; 0x40
 1001210:	eb0010bd 	bl	100550c <eth_send>
 1001214:	e3a03000 	mov	r3, #0
 1001218:	e5843038 	str	r3, [r4, #56]	; 0x38
 100121c:	e5843020 	str	r3, [r4, #32]
 1001220:	e5843040 	str	r3, [r4, #64]	; 0x40
 1001224:	ea0000aa 	b	10014d4 <NetReceive+0x520>
 1001228:	e356001b 	cmp	r6, #27
 100122c:	ca000003 	bgt	1001240 <NetReceive+0x28c>
 1001230:	e1a01006 	mov	r1, r6
 1001234:	e59f02bc 	ldr	r0, [pc, #700]	; 10014f8 <NetReceive+0x544>
 1001238:	e3a0201c 	mov	r2, #28
 100123c:	ea000032 	b	100130c <NetReceive+0x358>
 1001240:	e1d400b6 	ldrh	r0, [r4, #6]
 1001244:	ebfffddc 	bl	10009bc <__fswab16>
 1001248:	e3500004 	cmp	r0, #4
 100124c:	1a00000b 	bne	1001280 <NetReceive+0x2cc>
 1001250:	e1d400b0 	ldrh	r0, [r4]
 1001254:	ebfffdd8 	bl	10009bc <__fswab16>
 1001258:	e3500001 	cmp	r0, #1
 100125c:	1a000007 	bne	1001280 <NetReceive+0x2cc>
 1001260:	e1d400b2 	ldrh	r0, [r4, #2]
 1001264:	ebfffdd4 	bl	10009bc <__fswab16>
 1001268:	e3500b02 	cmp	r0, #2048	; 0x800
 100126c:	1a000003 	bne	1001280 <NetReceive+0x2cc>
 1001270:	e1d420b4 	ldrh	r2, [r4, #4]
 1001274:	e59f3280 	ldr	r3, [pc, #640]	; 10014fc <NetReceive+0x548>
 1001278:	e1520003 	cmp	r2, r3
 100127c:	0a000001 	beq	1001288 <NetReceive+0x2d4>
 1001280:	e59f0278 	ldr	r0, [pc, #632]	; 1001500 <NetReceive+0x54c>
 1001284:	ea000035 	b	1001360 <NetReceive+0x3ac>
 1001288:	e59f524c 	ldr	r5, [pc, #588]	; 10014dc <NetReceive+0x528>
 100128c:	e2841018 	add	r1, r4, #24
 1001290:	e285000c 	add	r0, r5, #12
 1001294:	ebfffe86 	bl	1000cb4 <NetCopyIP>
 1001298:	e5953044 	ldr	r3, [r5, #68]	; 0x44
 100129c:	e2846008 	add	r6, r4, #8
 10012a0:	e3530000 	cmp	r3, #0
 10012a4:	1a000002 	bne	10012b4 <NetReceive+0x300>
 10012a8:	e2850044 	add	r0, r5, #68	; 0x44
 10012ac:	e284100e 	add	r1, r4, #14
 10012b0:	ebfffe7f 	bl	1000cb4 <NetCopyIP>
 10012b4:	e59f4220 	ldr	r4, [pc, #544]	; 10014dc <NetReceive+0x528>
 10012b8:	e1a01006 	mov	r1, r6
 10012bc:	e2840048 	add	r0, r4, #72	; 0x48
 10012c0:	e3a02006 	mov	r2, #6
 10012c4:	eb002dc4 	bl	100c9dc <memcpy>
 10012c8:	e3a00000 	mov	r0, #0
 10012cc:	e1a01000 	mov	r1, r0
 10012d0:	e1a02000 	mov	r2, r0
 10012d4:	e1a03000 	mov	r3, r0
 10012d8:	e1a0e00f 	mov	lr, pc
 10012dc:	e594f004 	ldr	pc, [r4, #4]
 10012e0:	ea00007b 	b	10014d4 <NetReceive+0x520>
 10012e4:	e356001b 	cmp	r6, #27
 10012e8:	9a000079 	bls	10014d4 <NetReceive+0x520>
 10012ec:	e1d400b2 	ldrh	r0, [r4, #2]
 10012f0:	ebfffdb1 	bl	10009bc <__fswab16>
 10012f4:	e1560000 	cmp	r6, r0
 10012f8:	e1a09000 	mov	r9, r0
 10012fc:	aa000005 	bge	1001318 <NetReceive+0x364>
 1001300:	e1a02000 	mov	r2, r0
 1001304:	e59f01f8 	ldr	r0, [pc, #504]	; 1001504 <NetReceive+0x550>
 1001308:	e1a01006 	mov	r1, r6
 100130c:	e28dd004 	add	sp, sp, #4
 1001310:	e8bd4ef0 	pop	{r4, r5, r6, r7, r9, sl, fp, lr}
 1001314:	ea001ea4 	b	1008dac <printf>
 1001318:	e5d42000 	ldrb	r2, [r4]
 100131c:	e20230f0 	and	r3, r2, #240	; 0xf0
 1001320:	e3530040 	cmp	r3, #64	; 0x40
 1001324:	1a00006a 	bne	10014d4 <NetReceive+0x520>
 1001328:	e1d410b6 	ldrh	r1, [r4, #6]
 100132c:	e59f31d4 	ldr	r3, [pc, #468]	; 1001508 <NetReceive+0x554>
 1001330:	e0013003 	and	r3, r1, r3
 1001334:	e3530000 	cmp	r3, #0
 1001338:	1a000065 	bne	10014d4 <NetReceive+0x520>
 100133c:	e202200f 	and	r2, r2, #15
 1001340:	e3520005 	cmp	r2, #5
 1001344:	ca000062 	bgt	10014d4 <NetReceive+0x520>
 1001348:	e1a00004 	mov	r0, r4
 100134c:	e3a0100a 	mov	r1, #10
 1001350:	ebfffdc2 	bl	1000a60 <NetCksumOk>
 1001354:	e3500000 	cmp	r0, #0
 1001358:	1a000003 	bne	100136c <NetReceive+0x3b8>
 100135c:	e59f01a8 	ldr	r0, [pc, #424]	; 100150c <NetReceive+0x558>
 1001360:	e28dd004 	add	sp, sp, #4
 1001364:	e8bd4ef0 	pop	{r4, r5, r6, r7, r9, sl, fp, lr}
 1001368:	ea001e7d 	b	1008d64 <puts>
 100136c:	e284b010 	add	fp, r4, #16
 1001370:	e1a0000b 	mov	r0, fp
 1001374:	ebfffeba 	bl	1000e64 <NetReadIP>
 1001378:	e59f315c 	ldr	r3, [pc, #348]	; 10014dc <NetReceive+0x528>
 100137c:	e593300c 	ldr	r3, [r3, #12]
 1001380:	e3530000 	cmp	r3, #0
 1001384:	0a000002 	beq	1001394 <NetReceive+0x3e0>
 1001388:	e1500003 	cmp	r0, r3
 100138c:	13700001 	cmnne	r0, #1
 1001390:	1a00004f 	bne	10014d4 <NetReceive+0x520>
 1001394:	e5d43009 	ldrb	r3, [r4, #9]
 1001398:	e3530001 	cmp	r3, #1
 100139c:	1a00003b 	bne	1001490 <NetReceive+0x4dc>
 10013a0:	e5d41014 	ldrb	r1, [r4, #20]
 10013a4:	e2846014 	add	r6, r4, #20
 10013a8:	e3510005 	cmp	r1, #5
 10013ac:	0a000007 	beq	10013d0 <NetReceive+0x41c>
 10013b0:	e3510008 	cmp	r1, #8
 10013b4:	0a000010 	beq	10013fc <NetReceive+0x448>
 10013b8:	e3510000 	cmp	r1, #0
 10013bc:	01a00004 	moveq	r0, r4
 10013c0:	01a02001 	moveq	r2, r1
 10013c4:	01a03001 	moveq	r3, r1
 10013c8:	0a00003e 	beq	10014c8 <NetReceive+0x514>
 10013cc:	ea000040 	b	10014d4 <NetReceive+0x520>
 10013d0:	e5d63001 	ldrb	r3, [r6, #1]
 10013d4:	e3530001 	cmp	r3, #1
 10013d8:	1a00003d 	bne	10014d4 <NetReceive+0x520>
 10013dc:	e59f012c 	ldr	r0, [pc, #300]	; 1001510 <NetReceive+0x55c>
 10013e0:	eb001e5f 	bl	1008d64 <puts>
 10013e4:	e5960004 	ldr	r0, [r6, #4]
 10013e8:	ebfffe2a 	bl	1000c98 <print_IPaddr>
 10013ec:	e3a00020 	mov	r0, #32
 10013f0:	e28dd004 	add	sp, sp, #4
 10013f4:	e8bd4ef0 	pop	{r4, r5, r6, r7, r9, sl, fp, lr}
 10013f8:	ea001eed 	b	1008fb4 <putc>
 10013fc:	e2857006 	add	r7, r5, #6
 1001400:	e1a01007 	mov	r1, r7
 1001404:	e3a02006 	mov	r2, #6
 1001408:	e1a00005 	mov	r0, r5
 100140c:	eb002d72 	bl	100c9dc <memcpy>
 1001410:	e284a00c 	add	sl, r4, #12
 1001414:	e3a02006 	mov	r2, #6
 1001418:	e1a00007 	mov	r0, r7
 100141c:	e59f10f0 	ldr	r1, [pc, #240]	; 1001514 <NetReceive+0x560>
 1001420:	e3a07000 	mov	r7, #0
 1001424:	eb002d6c 	bl	100c9dc <memcpy>
 1001428:	e1a0000b 	mov	r0, fp
 100142c:	e1a0100a 	mov	r1, sl
 1001430:	e1c470ba 	strh	r7, [r4, #10]
 1001434:	e1c470b6 	strh	r7, [r4, #6]
 1001438:	ebfffe1d 	bl	1000cb4 <NetCopyIP>
 100143c:	e1a0000a 	mov	r0, sl
 1001440:	e59f10d0 	ldr	r1, [pc, #208]	; 1001518 <NetReceive+0x564>
 1001444:	ebfffe1a 	bl	1000cb4 <NetCopyIP>
 1001448:	e3a0100a 	mov	r1, #10
 100144c:	e1a00004 	mov	r0, r4
 1001450:	ebfffd70 	bl	1000a18 <NetCksum>
 1001454:	e2491014 	sub	r1, r9, #20
 1001458:	e1a010a1 	lsr	r1, r1, #1
 100145c:	e1e00000 	mvn	r0, r0
 1001460:	e1c400ba 	strh	r0, [r4, #10]
 1001464:	e1c670b2 	strh	r7, [r6, #2]
 1001468:	e5c67000 	strb	r7, [r6]
 100146c:	e1a00006 	mov	r0, r6
 1001470:	ebfffd68 	bl	1000a18 <NetCksum>
 1001474:	e289100e 	add	r1, r9, #14
 1001478:	e1e00000 	mvn	r0, r0
 100147c:	e1c600b2 	strh	r0, [r6, #2]
 1001480:	e1a00005 	mov	r0, r5
 1001484:	e28dd004 	add	sp, sp, #4
 1001488:	e8bd4ef0 	pop	{r4, r5, r6, r7, r9, sl, fp, lr}
 100148c:	ea00101e 	b	100550c <eth_send>
 1001490:	e3530011 	cmp	r3, #17
 1001494:	1a00000e 	bne	10014d4 <NetReceive+0x520>
 1001498:	e1d401b6 	ldrh	r0, [r4, #22]
 100149c:	ebfffd46 	bl	10009bc <__fswab16>
 10014a0:	e1a06000 	mov	r6, r0
 10014a4:	e1d401b4 	ldrh	r0, [r4, #20]
 10014a8:	ebfffd43 	bl	10009bc <__fswab16>
 10014ac:	e1a05000 	mov	r5, r0
 10014b0:	e1d401b8 	ldrh	r0, [r4, #24]
 10014b4:	ebfffd40 	bl	10009bc <__fswab16>
 10014b8:	e1a01006 	mov	r1, r6
 10014bc:	e1a02005 	mov	r2, r5
 10014c0:	e2403008 	sub	r3, r0, #8
 10014c4:	e284001c 	add	r0, r4, #28
 10014c8:	e59fc00c 	ldr	ip, [pc, #12]	; 10014dc <NetReceive+0x528>
 10014cc:	e1a0e00f 	mov	lr, pc
 10014d0:	e59cf004 	ldr	pc, [ip, #4]
 10014d4:	e28dd004 	add	sp, sp, #4
 10014d8:	e8bd8ef0 	pop	{r4, r5, r6, r7, r9, sl, fp, pc}
 10014dc:	01015208 	tsteq	r1, r8, lsl #4
 10014e0:	010143d0 	ldrdeq	r4, [r1, -r0]
 10014e4:	0000ffff 	strdeq	pc, [r0], -pc
 10014e8:	00000fff 	strdeq	r0, [r0], -pc
 10014ec:	000005e9 	andeq	r0, r0, r9, ror #11
 10014f0:	00000806 	andeq	r0, r0, r6, lsl #16
 10014f4:	00008035 	andeq	r8, r0, r5, lsr r0
 10014f8:	01011181 	smlabbeq	r1, r1, r1, r1
 10014fc:	00000406 	andeq	r0, r0, r6, lsl #8
 1001500:	01011195 	tsteq	r1, r5, lsl r1
 1001504:	010111aa 	smlatbeq	r1, sl, r1, r1
 1001508:	0000ff3f 	andeq	pc, r0, pc, lsr pc
 100150c:	010111bb 	strheq	r1, [r1, -fp]
 1001510:	010111c9 	smlabteq	r1, r9, r1, r1
 1001514:	01015218 	tsteq	r1, r8, lsl r2
 1001518:	01015214 	tsteq	r1, r4, lsl r2

0100151c <PingSend>:
 100151c:	e92d44f0 	push	{r4, r5, r6, r7, sl, lr}
 1001520:	e59f412c 	ldr	r4, [pc, #300]	; 1001654 <PingSend+0x138>
 1001524:	e3a02006 	mov	r2, #6
 1001528:	e2846050 	add	r6, r4, #80	; 0x50
 100152c:	e2841058 	add	r1, r4, #88	; 0x58
 1001530:	e1a00006 	mov	r0, r6
 1001534:	eb002d28 	bl	100c9dc <memcpy>
 1001538:	e594503c 	ldr	r5, [r4, #60]	; 0x3c
 100153c:	e3a02b02 	mov	r2, #2048	; 0x800
 1001540:	e1a01006 	mov	r1, r6
 1001544:	e5943018 	ldr	r3, [r4, #24]
 1001548:	e1a00005 	mov	r0, r5
 100154c:	e5843020 	str	r3, [r4, #32]
 1001550:	e5846038 	str	r6, [r4, #56]	; 0x38
 1001554:	ebfffe16 	bl	1000db4 <NetSetEther>
 1001558:	e3a03045 	mov	r3, #69	; 0x45
 100155c:	e3a07000 	mov	r7, #0
 1001560:	e0856000 	add	r6, r5, r0
 1001564:	e7c53000 	strb	r3, [r5, r0]
 1001568:	e3a03b07 	mov	r3, #7168	; 0x1c00
 100156c:	e5c67001 	strb	r7, [r6, #1]
 1001570:	e1c630b2 	strh	r3, [r6, #2]
 1001574:	e5943008 	ldr	r3, [r4, #8]
 1001578:	e3a05001 	mov	r5, #1
 100157c:	e1a00803 	lsl	r0, r3, #16
 1001580:	e1a00820 	lsr	r0, r0, #16
 1001584:	e0833005 	add	r3, r3, r5
 1001588:	e5843008 	str	r3, [r4, #8]
 100158c:	ebfffd0a 	bl	10009bc <__fswab16>
 1001590:	e3a03040 	mov	r3, #64	; 0x40
 1001594:	e284100c 	add	r1, r4, #12
 1001598:	e286a014 	add	sl, r6, #20
 100159c:	e1c600b4 	strh	r0, [r6, #4]
 10015a0:	e1c630b6 	strh	r3, [r6, #6]
 10015a4:	e3e03000 	mvn	r3, #0
 10015a8:	e5c63008 	strb	r3, [r6, #8]
 10015ac:	e286000c 	add	r0, r6, #12
 10015b0:	e5c65009 	strb	r5, [r6, #9]
 10015b4:	e1c670ba 	strh	r7, [r6, #10]
 10015b8:	ebfffdbd 	bl	1000cb4 <NetCopyIP>
 10015bc:	e2841018 	add	r1, r4, #24
 10015c0:	e2860010 	add	r0, r6, #16
 10015c4:	ebfffdba 	bl	1000cb4 <NetCopyIP>
 10015c8:	e3a0100a 	mov	r1, #10
 10015cc:	e1a00006 	mov	r0, r6
 10015d0:	ebfffd10 	bl	1000a18 <NetCksum>
 10015d4:	e1e03000 	mvn	r3, r0
 10015d8:	e1a03803 	lsl	r3, r3, #16
 10015dc:	e1a03823 	lsr	r3, r3, #16
 10015e0:	e1c630ba 	strh	r3, [r6, #10]
 10015e4:	e3a03008 	mov	r3, #8
 10015e8:	e1c631b4 	strh	r3, [r6, #20]
 10015ec:	e1c671b6 	strh	r7, [r6, #22]
 10015f0:	e1c671b8 	strh	r7, [r6, #24]
 10015f4:	e1d435be 	ldrh	r3, [r4, #94]	; 0x5e
 10015f8:	e1a00003 	mov	r0, r3
 10015fc:	e0833005 	add	r3, r3, r5
 1001600:	e1c435be 	strh	r3, [r4, #94]	; 0x5e
 1001604:	ebfffcec 	bl	10009bc <__fswab16>
 1001608:	e3a01004 	mov	r1, #4
 100160c:	e1c601ba 	strh	r0, [r6, #26]
 1001610:	e1a0000a 	mov	r0, sl
 1001614:	ebfffcff 	bl	1000a18 <NetCksum>
 1001618:	e1e03000 	mvn	r3, r0
 100161c:	e1a03803 	lsl	r3, r3, #16
 1001620:	e1a03823 	lsr	r3, r3, #16
 1001624:	e1c631b6 	strh	r3, [r6, #22]
 1001628:	e594303c 	ldr	r3, [r4, #60]	; 0x3c
 100162c:	e1a00007 	mov	r0, r7
 1001630:	e0636006 	rsb	r6, r3, r6
 1001634:	e286601c 	add	r6, r6, #28
 1001638:	e5846040 	str	r6, [r4, #64]	; 0x40
 100163c:	e5845060 	str	r5, [r4, #96]	; 0x60
 1001640:	eb002929 	bl	100baec <get_timer>
 1001644:	e5840064 	str	r0, [r4, #100]	; 0x64
 1001648:	ebfffe1e 	bl	1000ec8 <ArpRequest>
 100164c:	e1a00005 	mov	r0, r5
 1001650:	e8bd84f0 	pop	{r4, r5, r6, r7, sl, pc}
 1001654:	01015208 	tsteq	r1, r8, lsl #4

01001658 <NetSetTimeout>:
 1001658:	e92d4030 	push	{r4, r5, lr}
 100165c:	e59f5020 	ldr	r5, [pc, #32]	; 1001684 <NetSetTimeout+0x2c>
 1001660:	e2504000 	subs	r4, r0, #0
 1001664:	05854068 	streq	r4, [r5, #104]	; 0x68
 1001668:	08bd8030 	popeq	{r4, r5, pc}
 100166c:	e3a00000 	mov	r0, #0
 1001670:	e5851068 	str	r1, [r5, #104]	; 0x68
 1001674:	eb00291c 	bl	100baec <get_timer>
 1001678:	e5854070 	str	r4, [r5, #112]	; 0x70
 100167c:	e585006c 	str	r0, [r5, #108]	; 0x6c
 1001680:	e8bd8030 	pop	{r4, r5, pc}
 1001684:	01015208 	tsteq	r1, r8, lsl #4

01001688 <NetSendUDPPacket>:
 1001688:	e92d4eff 	push	{r0, r1, r2, r3, r4, r5, r6, r7, r9, sl, fp, lr}
 100168c:	e2517000 	subs	r7, r1, #0
 1001690:	e1a05000 	mov	r5, r0
 1001694:	e58d2008 	str	r2, [sp, #8]
 1001698:	e1a09003 	mov	r9, r3
 100169c:	e59da030 	ldr	sl, [sp, #48]	; 0x30
 10016a0:	03e07000 	mvneq	r7, #0
 10016a4:	059f5114 	ldreq	r5, [pc, #276]	; 10017c0 <NetSendUDPPacket+0x138>
 10016a8:	0a000002 	beq	10016b8 <NetSendUDPPacket+0x30>
 10016ac:	e59f310c 	ldr	r3, [pc, #268]	; 10017c0 <NetSendUDPPacket+0x138>
 10016b0:	e3770001 	cmn	r7, #1
 10016b4:	01a05003 	moveq	r5, r3
 10016b8:	e59f4104 	ldr	r4, [pc, #260]	; 10017c4 <NetSendUDPPacket+0x13c>
 10016bc:	e1a00005 	mov	r0, r5
 10016c0:	e2841058 	add	r1, r4, #88	; 0x58
 10016c4:	e3a02006 	mov	r2, #6
 10016c8:	eb002ce3 	bl	100ca5c <memcmp>
 10016cc:	e28a301c 	add	r3, sl, #28
 10016d0:	e58d300c 	str	r3, [sp, #12]
 10016d4:	e250c000 	subs	ip, r0, #0
 10016d8:	1a000024 	bne	1001770 <NetSendUDPPacket+0xe8>
 10016dc:	e594b03c 	ldr	fp, [r4, #60]	; 0x3c
 10016e0:	e1a01005 	mov	r1, r5
 10016e4:	e3a02b02 	mov	r2, #2048	; 0x800
 10016e8:	e1a0000b 	mov	r0, fp
 10016ec:	e58dc004 	str	ip, [sp, #4]
 10016f0:	e5845038 	str	r5, [r4, #56]	; 0x38
 10016f4:	e5847020 	str	r7, [r4, #32]
 10016f8:	ebfffdad 	bl	1000db4 <NetSetEther>
 10016fc:	e1a03009 	mov	r3, r9
 1001700:	e1a01007 	mov	r1, r7
 1001704:	e59d2008 	ldr	r2, [sp, #8]
 1001708:	e58da000 	str	sl, [sp]
 100170c:	e3a06001 	mov	r6, #1
 1001710:	e08b5000 	add	r5, fp, r0
 1001714:	e1a00005 	mov	r0, r5
 1001718:	ebfffd67 	bl	1000cbc <NetSetIP>
 100171c:	e594103c 	ldr	r1, [r4, #60]	; 0x3c
 1001720:	e594301c 	ldr	r3, [r4, #28]
 1001724:	e0611005 	rsb	r1, r1, r5
 1001728:	e281101c 	add	r1, r1, #28
 100172c:	e0811003 	add	r1, r1, r3
 1001730:	e1a0200a 	mov	r2, sl
 1001734:	e285001c 	add	r0, r5, #28
 1001738:	eb002ca7 	bl	100c9dc <memcpy>
 100173c:	e594303c 	ldr	r3, [r4, #60]	; 0x3c
 1001740:	e59dc004 	ldr	ip, [sp, #4]
 1001744:	e0635005 	rsb	r5, r3, r5
 1001748:	e59d300c 	ldr	r3, [sp, #12]
 100174c:	e1a0000c 	mov	r0, ip
 1001750:	e0835005 	add	r5, r3, r5
 1001754:	e5845040 	str	r5, [r4, #64]	; 0x40
 1001758:	e5846060 	str	r6, [r4, #96]	; 0x60
 100175c:	eb0028e2 	bl	100baec <get_timer>
 1001760:	e5840064 	str	r0, [r4, #100]	; 0x64
 1001764:	ebfffdd7 	bl	1000ec8 <ArpRequest>
 1001768:	e1a00006 	mov	r0, r6
 100176c:	ea000011 	b	10017b8 <NetSendUDPPacket+0x130>
 1001770:	e594601c 	ldr	r6, [r4, #28]
 1001774:	e1a01005 	mov	r1, r5
 1001778:	e3a02b02 	mov	r2, #2048	; 0x800
 100177c:	e1a00006 	mov	r0, r6
 1001780:	ebfffd8b 	bl	1000db4 <NetSetEther>
 1001784:	e1a01007 	mov	r1, r7
 1001788:	e59d2008 	ldr	r2, [sp, #8]
 100178c:	e1a03009 	mov	r3, r9
 1001790:	e58da000 	str	sl, [sp]
 1001794:	e0866000 	add	r6, r6, r0
 1001798:	e1a00006 	mov	r0, r6
 100179c:	ebfffd46 	bl	1000cbc <NetSetIP>
 10017a0:	e594001c 	ldr	r0, [r4, #28]
 10017a4:	e59d300c 	ldr	r3, [sp, #12]
 10017a8:	e0606006 	rsb	r6, r0, r6
 10017ac:	e0831006 	add	r1, r3, r6
 10017b0:	eb000f55 	bl	100550c <eth_send>
 10017b4:	e3a00000 	mov	r0, #0
 10017b8:	e28dd010 	add	sp, sp, #16
 10017bc:	e8bd8ef0 	pop	{r4, r5, r6, r7, r9, sl, fp, pc}
 10017c0:	010143d4 	ldrdeq	r4, [r1, -r4]
 10017c4:	01015208 	tsteq	r1, r8, lsl #4

010017c8 <NetStartAgain>:
 10017c8:	e92d4030 	push	{r4, r5, lr}
 10017cc:	e59f0054 	ldr	r0, [pc, #84]	; 1001828 <NetStartAgain+0x60>
 10017d0:	eb001a4c 	bl	1008108 <getenv>
 10017d4:	e2505000 	subs	r5, r0, #0
 10017d8:	0a00000c 	beq	1001810 <NetStartAgain+0x48>
 10017dc:	e59f1048 	ldr	r1, [pc, #72]	; 100182c <NetStartAgain+0x64>
 10017e0:	eb002bc5 	bl	100c6fc <strcmp>
 10017e4:	e59f1044 	ldr	r1, [pc, #68]	; 1001830 <NetStartAgain+0x68>
 10017e8:	e1a04000 	mov	r4, r0
 10017ec:	e1a00005 	mov	r0, r5
 10017f0:	eb002bc1 	bl	100c6fc <strcmp>
 10017f4:	e3540000 	cmp	r4, #0
 10017f8:	1a000004 	bne	1001810 <NetStartAgain+0x48>
 10017fc:	eb000ce5 	bl	1004b98 <eth_halt>
 1001800:	e59f302c 	ldr	r3, [pc, #44]	; 1001834 <NetStartAgain+0x6c>
 1001804:	e3a02004 	mov	r2, #4
 1001808:	e5832000 	str	r2, [r3]
 100180c:	e8bd8030 	pop	{r4, r5, pc}
 1001810:	e59f0020 	ldr	r0, [pc, #32]	; 1001838 <NetStartAgain+0x70>
 1001814:	e59f1020 	ldr	r1, [pc, #32]	; 100183c <NetStartAgain+0x74>
 1001818:	ebffff8e 	bl	1001658 <NetSetTimeout>
 100181c:	e59f001c 	ldr	r0, [pc, #28]	; 1001840 <NetStartAgain+0x78>
 1001820:	e8bd4030 	pop	{r4, r5, lr}
 1001824:	eafffc77 	b	1000a08 <NetSetHandler>
 1001828:	010111e1 	smlatteq	r1, r1, r1, r1
 100182c:	010111ea 	smlatteq	r1, sl, r1, r1
 1001830:	010111ed 	smlatteq	r1, sp, r1, r1
 1001834:	01015208 	tsteq	r1, r8, lsl #4
 1001838:	00002710 	andeq	r2, r0, r0, lsl r7
 100183c:	010009f0 	strdeq	r0, [r0, -r0]
 1001840:	01000a04 	tsteq	r0, r4, lsl #20

01001844 <ArpTimeoutCheck>:
 1001844:	e92d4010 	push	{r4, lr}
 1001848:	e59f405c 	ldr	r4, [pc, #92]	; 10018ac <ArpTimeoutCheck+0x68>
 100184c:	e5943020 	ldr	r3, [r4, #32]
 1001850:	e3530000 	cmp	r3, #0
 1001854:	08bd8010 	popeq	{r4, pc}
 1001858:	e3a00000 	mov	r0, #0
 100185c:	eb0028a2 	bl	100baec <get_timer>
 1001860:	e5942064 	ldr	r2, [r4, #100]	; 0x64
 1001864:	e59f3044 	ldr	r3, [pc, #68]	; 10018b0 <ArpTimeoutCheck+0x6c>
 1001868:	e0622000 	rsb	r2, r2, r0
 100186c:	e1520003 	cmp	r2, r3
 1001870:	98bd8010 	popls	{r4, pc}
 1001874:	e5943060 	ldr	r3, [r4, #96]	; 0x60
 1001878:	e2833001 	add	r3, r3, #1
 100187c:	e3530004 	cmp	r3, #4
 1001880:	e5843060 	str	r3, [r4, #96]	; 0x60
 1001884:	da000005 	ble	10018a0 <ArpTimeoutCheck+0x5c>
 1001888:	e59f0024 	ldr	r0, [pc, #36]	; 10018b4 <ArpTimeoutCheck+0x70>
 100188c:	eb001d34 	bl	1008d64 <puts>
 1001890:	e3a03000 	mov	r3, #0
 1001894:	e5843060 	str	r3, [r4, #96]	; 0x60
 1001898:	e8bd4010 	pop	{r4, lr}
 100189c:	eaffffc9 	b	10017c8 <NetStartAgain>
 10018a0:	e5840064 	str	r0, [r4, #100]	; 0x64
 10018a4:	e8bd4010 	pop	{r4, lr}
 10018a8:	eafffd86 	b	1000ec8 <ArpRequest>
 10018ac:	01015208 	tsteq	r1, r8, lsl #4
 10018b0:	00001388 	andeq	r1, r0, r8, lsl #7
 10018b4:	010111f2 	strdeq	r1, [r1, -r2]

010018b8 <PingTimeout>:
 10018b8:	e52de004 	push	{lr}		; (str lr, [sp, #-4]!)
 10018bc:	eb000cb5 	bl	1004b98 <eth_halt>
 10018c0:	e59f3008 	ldr	r3, [pc, #8]	; 10018d0 <PingTimeout+0x18>
 10018c4:	e3a02004 	mov	r2, #4
 10018c8:	e5832000 	str	r2, [r3]
 10018cc:	e49df004 	pop	{pc}		; (ldr pc, [sp], #4)
 10018d0:	01015208 	tsteq	r1, r8, lsl #4

010018d4 <NetInitLoop>:
 10018d4:	e92d40f0 	push	{r4, r5, r6, r7, lr}
 10018d8:	e1a05000 	mov	r5, r0
 10018dc:	e5987000 	ldr	r7, [r8]
 10018e0:	eb0019b9 	bl	1007fcc <get_env_id>
 10018e4:	e59f40f4 	ldr	r4, [pc, #244]	; 10019e0 <NetInitLoop+0x10c>
 10018e8:	e5943074 	ldr	r3, [r4, #116]	; 0x74
 10018ec:	e1530000 	cmp	r3, r0
 10018f0:	e1a06000 	mov	r6, r0
 10018f4:	0a000037 	beq	10019d8 <NetInitLoop+0x104>
 10018f8:	e3550009 	cmp	r5, #9
 10018fc:	8a000033 	bhi	10019d0 <NetInitLoop+0xfc>
 1001900:	e3a02001 	mov	r2, #1
 1001904:	e1a02512 	lsl	r2, r2, r5
 1001908:	e3120f8a 	tst	r2, #552	; 0x228
 100190c:	1a000004 	bne	1001924 <NetInitLoop+0x50>
 1001910:	e2123c01 	ands	r3, r2, #256	; 0x100
 1001914:	1a000026 	bne	10019b4 <NetInitLoop+0xe0>
 1001918:	e3120003 	tst	r2, #3
 100191c:	1a000019 	bne	1001988 <NetInitLoop+0xb4>
 1001920:	ea00002a 	b	10019d0 <NetInitLoop+0xfc>
 1001924:	e2871004 	add	r1, r7, #4
 1001928:	e284000c 	add	r0, r4, #12
 100192c:	ebfffce0 	bl	1000cb4 <NetCopyIP>
 1001930:	e59f00ac 	ldr	r0, [pc, #172]	; 10019e4 <NetInitLoop+0x110>
 1001934:	ebfffc99 	bl	1000ba0 <getenv_IPaddr>
 1001938:	e59f70a8 	ldr	r7, [pc, #168]	; 10019e8 <NetInitLoop+0x114>
 100193c:	e5840028 	str	r0, [r4, #40]	; 0x28
 1001940:	e59f00a4 	ldr	r0, [pc, #164]	; 10019ec <NetInitLoop+0x118>
 1001944:	ebfffc95 	bl	1000ba0 <getenv_IPaddr>
 1001948:	e5840024 	str	r0, [r4, #36]	; 0x24
 100194c:	e59f009c 	ldr	r0, [pc, #156]	; 10019f0 <NetInitLoop+0x11c>
 1001950:	ebfffc74 	bl	1000b28 <getenv_VLAN>
 1001954:	e1c700b0 	strh	r0, [r7]
 1001958:	e59f0094 	ldr	r0, [pc, #148]	; 10019f4 <NetInitLoop+0x120>
 100195c:	ebfffc71 	bl	1000b28 <getenv_VLAN>
 1001960:	e3550003 	cmp	r5, #3
 1001964:	e1c700ba 	strh	r0, [r7, #10]
 1001968:	0a000001 	beq	1001974 <NetInitLoop+0xa0>
 100196c:	e3550009 	cmp	r5, #9
 1001970:	1a000016 	bne	10019d0 <NetInitLoop+0xfc>
 1001974:	e59f007c 	ldr	r0, [pc, #124]	; 10019f8 <NetInitLoop+0x124>
 1001978:	ebfffc88 	bl	1000ba0 <getenv_IPaddr>
 100197c:	e59f305c 	ldr	r3, [pc, #92]	; 10019e0 <NetInitLoop+0x10c>
 1001980:	e5830044 	str	r0, [r3, #68]	; 0x44
 1001984:	ea000011 	b	10019d0 <NetInitLoop+0xfc>
 1001988:	e584300c 	str	r3, [r4, #12]
 100198c:	e59f0064 	ldr	r0, [pc, #100]	; 10019f8 <NetInitLoop+0x124>
 1001990:	ebfffc82 	bl	1000ba0 <getenv_IPaddr>
 1001994:	e59f504c 	ldr	r5, [pc, #76]	; 10019e8 <NetInitLoop+0x114>
 1001998:	e5840044 	str	r0, [r4, #68]	; 0x44
 100199c:	e59f004c 	ldr	r0, [pc, #76]	; 10019f0 <NetInitLoop+0x11c>
 10019a0:	ebfffc60 	bl	1000b28 <getenv_VLAN>
 10019a4:	e1c500b0 	strh	r0, [r5]
 10019a8:	e59f0044 	ldr	r0, [pc, #68]	; 10019f4 <NetInitLoop+0x120>
 10019ac:	ebfffc5d 	bl	1000b28 <getenv_VLAN>
 10019b0:	e1c500ba 	strh	r0, [r5, #10]
 10019b4:	e59f0034 	ldr	r0, [pc, #52]	; 10019f0 <NetInitLoop+0x11c>
 10019b8:	ebfffc5a 	bl	1000b28 <getenv_VLAN>
 10019bc:	e59f4024 	ldr	r4, [pc, #36]	; 10019e8 <NetInitLoop+0x114>
 10019c0:	e1c400b0 	strh	r0, [r4]
 10019c4:	e59f0028 	ldr	r0, [pc, #40]	; 10019f4 <NetInitLoop+0x120>
 10019c8:	ebfffc56 	bl	1000b28 <getenv_VLAN>
 10019cc:	e1c400ba 	strh	r0, [r4, #10]
 10019d0:	e59f3008 	ldr	r3, [pc, #8]	; 10019e0 <NetInitLoop+0x10c>
 10019d4:	e5836074 	str	r6, [r3, #116]	; 0x74
 10019d8:	e3a00000 	mov	r0, #0
 10019dc:	e8bd80f0 	pop	{r4, r5, r6, r7, pc}
 10019e0:	01015208 	tsteq	r1, r8, lsl #4
 10019e4:	0101121d 	tsteq	r1, sp, lsl r2
 10019e8:	010143d0 	ldrdeq	r4, [r1, -r0]
 10019ec:	01011227 	tsteq	r1, r7, lsr #4
 10019f0:	01011230 	tsteq	r1, r0, lsr r2
 10019f4:	0101122f 	tsteq	r1, pc, lsr #4
 10019f8:	01011235 	tsteq	r1, r5, lsr r2

010019fc <NetLoop>:
 10019fc:	e59f32bc 	ldr	r3, [pc, #700]	; 1001cc0 <NetLoop+0x2c4>
 1001a00:	e92d44f0 	push	{r4, r5, r6, r7, sl, lr}
 1001a04:	e59fe2b8 	ldr	lr, [pc, #696]	; 1001cc4 <NetLoop+0x2c8>
 1001a08:	e2832097 	add	r2, r3, #151	; 0x97
 1001a0c:	e5986000 	ldr	r6, [r8]
 1001a10:	e3c2201f 	bic	r2, r2, #31
 1001a14:	e59fc2ac 	ldr	ip, [pc, #684]	; 1001cc8 <NetLoop+0x2cc>
 1001a18:	e3a01000 	mov	r1, #0
 1001a1c:	e3cee01f 	bic	lr, lr, #31
 1001a20:	e2824c12 	add	r4, r2, #4608	; 0x1200
 1001a24:	e282ab06 	add	sl, r2, #6144	; 0x1800
 1001a28:	e2827c06 	add	r7, r2, #1536	; 0x600
 1001a2c:	e2825b03 	add	r5, r2, #3072	; 0xc00
 1001a30:	e24dd014 	sub	sp, sp, #20
 1001a34:	e5831040 	str	r1, [r3, #64]	; 0x40
 1001a38:	e583e03c 	str	lr, [r3, #60]	; 0x3c
 1001a3c:	e5831038 	str	r1, [r3, #56]	; 0x38
 1001a40:	e5831020 	str	r1, [r3, #32]
 1001a44:	e583102c 	str	r1, [r3, #44]	; 0x2c
 1001a48:	e583201c 	str	r2, [r3, #28]
 1001a4c:	e50c4158 	str	r4, [ip, #-344]	; 0x158
 1001a50:	e50ca154 	str	sl, [ip, #-340]	; 0x154
 1001a54:	e50c7160 	str	r7, [ip, #-352]	; 0x160
 1001a58:	e50c515c 	str	r5, [ip, #-348]	; 0x15c
 1001a5c:	e1a04000 	mov	r4, r0
 1001a60:	eb000c4c 	bl	1004b98 <eth_halt>
 1001a64:	e1a00006 	mov	r0, r6
 1001a68:	eb000df2 	bl	1005238 <eth_init>
 1001a6c:	e3500000 	cmp	r0, #0
 1001a70:	a2866008 	addge	r6, r6, #8
 1001a74:	ba00008e 	blt	1001cb4 <NetLoop+0x2b8>
 1001a78:	e59f5240 	ldr	r5, [pc, #576]	; 1001cc0 <NetLoop+0x2c4>
 1001a7c:	e1a01006 	mov	r1, r6
 1001a80:	e3a02006 	mov	r2, #6
 1001a84:	e2850010 	add	r0, r5, #16
 1001a88:	e3a07001 	mov	r7, #1
 1001a8c:	eb002bd2 	bl	100c9dc <memcpy>
 1001a90:	e1a00004 	mov	r0, r4
 1001a94:	e5857000 	str	r7, [r5]
 1001a98:	ebffff8d 	bl	10018d4 <NetInitLoop>
 1001a9c:	e3540009 	cmp	r4, #9
 1001aa0:	8a00001f 	bhi	1001b24 <NetLoop+0x128>
 1001aa4:	e1a07417 	lsl	r7, r7, r4
 1001aa8:	e59f321c 	ldr	r3, [pc, #540]	; 1001ccc <NetLoop+0x2d0>
 1001aac:	e0073003 	and	r3, r7, r3
 1001ab0:	e3530000 	cmp	r3, #0
 1001ab4:	1a000011 	bne	1001b00 <NetLoop+0x104>
 1001ab8:	e3170f82 	tst	r7, #520	; 0x208
 1001abc:	1a000006 	bne	1001adc <NetLoop+0xe0>
 1001ac0:	e3170020 	tst	r7, #32
 1001ac4:	0a000016 	beq	1001b24 <NetLoop+0x128>
 1001ac8:	e5953018 	ldr	r3, [r5, #24]
 1001acc:	e3530000 	cmp	r3, #0
 1001ad0:	1a000005 	bne	1001aec <NetLoop+0xf0>
 1001ad4:	e59f01f4 	ldr	r0, [pc, #500]	; 1001cd0 <NetLoop+0x2d4>
 1001ad8:	ea00000f 	b	1001b1c <NetLoop+0x120>
 1001adc:	e5953044 	ldr	r3, [r5, #68]	; 0x44
 1001ae0:	e3530000 	cmp	r3, #0
 1001ae4:	059f01e8 	ldreq	r0, [pc, #488]	; 1001cd4 <NetLoop+0x2d8>
 1001ae8:	0a00000b 	beq	1001b1c <NetLoop+0x120>
 1001aec:	e59f31cc 	ldr	r3, [pc, #460]	; 1001cc0 <NetLoop+0x2c4>
 1001af0:	e593300c 	ldr	r3, [r3, #12]
 1001af4:	e3530000 	cmp	r3, #0
 1001af8:	059f01d8 	ldreq	r0, [pc, #472]	; 1001cd8 <NetLoop+0x2dc>
 1001afc:	0a000006 	beq	1001b1c <NetLoop+0x120>
 1001b00:	e59f01d4 	ldr	r0, [pc, #468]	; 1001cdc <NetLoop+0x2e0>
 1001b04:	e59f11d4 	ldr	r1, [pc, #468]	; 1001ce0 <NetLoop+0x2e4>
 1001b08:	e3a02006 	mov	r2, #6
 1001b0c:	eb002bd2 	bl	100ca5c <memcmp>
 1001b10:	e3500000 	cmp	r0, #0
 1001b14:	1a000002 	bne	1001b24 <NetLoop+0x128>
 1001b18:	e59f01c4 	ldr	r0, [pc, #452]	; 1001ce4 <NetLoop+0x2e8>
 1001b1c:	eb001c90 	bl	1008d64 <puts>
 1001b20:	ea000063 	b	1001cb4 <NetLoop+0x2b8>
 1001b24:	e3540005 	cmp	r4, #5
 1001b28:	979ff104 	ldrls	pc, [pc, r4, lsl #2]
 1001b2c:	ea000021 	b	1001bb8 <NetLoop+0x1bc>
 1001b30:	01001b78 	tsteq	r0, r8, ror fp
 1001b34:	01001b8c 	smlabbeq	r0, ip, fp, r1
 1001b38:	01001bb8 	strheq	r1, [r0, -r8]
 1001b3c:	01001b48 	tsteq	r0, r8, asr #22
 1001b40:	01001b50 	tsteq	r0, r0, asr fp
 1001b44:	01001ba0 	smlatbeq	r0, r0, fp, r1
 1001b48:	eb0000d8 	bl	1001eb0 <TftpStart>
 1001b4c:	ea000019 	b	1001bb8 <NetLoop+0x1bc>
 1001b50:	e59f5168 	ldr	r5, [pc, #360]	; 1001cc0 <NetLoop+0x2c4>
 1001b54:	e59f218c 	ldr	r2, [pc, #396]	; 1001ce8 <NetLoop+0x2ec>
 1001b58:	e3a03000 	mov	r3, #0
 1001b5c:	e5823000 	str	r3, [r2]
 1001b60:	e585300c 	str	r3, [r5, #12]
 1001b64:	e59f0180 	ldr	r0, [pc, #384]	; 1001cec <NetLoop+0x2f0>
 1001b68:	ebfffc0c 	bl	1000ba0 <getenv_IPaddr>
 1001b6c:	e5850044 	str	r0, [r5, #68]	; 0x44
 1001b70:	eb00048e 	bl	1002db0 <DhcpRequest>
 1001b74:	ea00000f 	b	1001bb8 <NetLoop+0x1bc>
 1001b78:	e59f3168 	ldr	r3, [pc, #360]	; 1001ce8 <NetLoop+0x2ec>
 1001b7c:	e3a02000 	mov	r2, #0
 1001b80:	e5832000 	str	r2, [r3]
 1001b84:	eb00041e 	bl	1002c04 <BootpRequest>
 1001b88:	ea00000a 	b	1001bb8 <NetLoop+0x1bc>
 1001b8c:	e59f315c 	ldr	r3, [pc, #348]	; 1001cf0 <NetLoop+0x2f4>
 1001b90:	e3a02000 	mov	r2, #0
 1001b94:	e5832000 	str	r2, [r3]
 1001b98:	eb000497 	bl	1002dfc <RarpRequest>
 1001b9c:	ea000005 	b	1001bb8 <NetLoop+0x1bc>
 1001ba0:	e59f014c 	ldr	r0, [pc, #332]	; 1001cf4 <NetLoop+0x2f8>
 1001ba4:	e59f114c 	ldr	r1, [pc, #332]	; 1001cf8 <NetLoop+0x2fc>
 1001ba8:	ebfffeaa 	bl	1001658 <NetSetTimeout>
 1001bac:	e59f0148 	ldr	r0, [pc, #328]	; 1001cfc <NetLoop+0x300>
 1001bb0:	ebfffb94 	bl	1000a08 <NetSetHandler>
 1001bb4:	ebfffe58 	bl	100151c <PingSend>
 1001bb8:	e59f3108 	ldr	r3, [pc, #264]	; 1001cc8 <NetLoop+0x2cc>
 1001bbc:	e3a02000 	mov	r2, #0
 1001bc0:	e58324d0 	str	r2, [r3, #1232]	; 0x4d0
 1001bc4:	eb000d44 	bl	10050dc <eth_rx>
 1001bc8:	eb001d0d 	bl	1009004 <ctrlc>
 1001bcc:	e59f50ec 	ldr	r5, [pc, #236]	; 1001cc0 <NetLoop+0x2c4>
 1001bd0:	e2507000 	subs	r7, r0, #0
 1001bd4:	0a000003 	beq	1001be8 <NetLoop+0x1ec>
 1001bd8:	eb000bee 	bl	1004b98 <eth_halt>
 1001bdc:	e59f011c 	ldr	r0, [pc, #284]	; 1001d00 <NetLoop+0x304>
 1001be0:	eb001c5f 	bl	1008d64 <puts>
 1001be4:	ea000033 	b	1001cb8 <NetLoop+0x2bc>
 1001be8:	ebffff15 	bl	1001844 <ArpTimeoutCheck>
 1001bec:	e5953068 	ldr	r3, [r5, #104]	; 0x68
 1001bf0:	e1a00007 	mov	r0, r7
 1001bf4:	e3530000 	cmp	r3, #0
 1001bf8:	0a000008 	beq	1001c20 <NetLoop+0x224>
 1001bfc:	eb0027ba 	bl	100baec <get_timer>
 1001c00:	e595206c 	ldr	r2, [r5, #108]	; 0x6c
 1001c04:	e5953070 	ldr	r3, [r5, #112]	; 0x70
 1001c08:	e0622000 	rsb	r2, r2, r0
 1001c0c:	e1520003 	cmp	r2, r3
 1001c10:	9a000002 	bls	1001c20 <NetLoop+0x224>
 1001c14:	e5953068 	ldr	r3, [r5, #104]	; 0x68
 1001c18:	e5857068 	str	r7, [r5, #104]	; 0x68
 1001c1c:	e12fff33 	blx	r3
 1001c20:	e59f3098 	ldr	r3, [pc, #152]	; 1001cc0 <NetLoop+0x2c4>
 1001c24:	e5933000 	ldr	r3, [r3]
 1001c28:	e3530003 	cmp	r3, #3
 1001c2c:	0a000004 	beq	1001c44 <NetLoop+0x248>
 1001c30:	e3530004 	cmp	r3, #4
 1001c34:	0a00001f 	beq	1001cb8 <NetLoop+0x2bc>
 1001c38:	e3530002 	cmp	r3, #2
 1001c3c:	1affffe0 	bne	1001bc4 <NetLoop+0x1c8>
 1001c40:	eaffff8c 	b	1001a78 <NetLoop+0x7c>
 1001c44:	e59f507c 	ldr	r5, [pc, #124]	; 1001cc8 <NetLoop+0x2cc>
 1001c48:	e59514d0 	ldr	r1, [r5, #1232]	; 0x4d0
 1001c4c:	e3510000 	cmp	r1, #0
 1001c50:	0a000012 	beq	1001ca0 <NetLoop+0x2a4>
 1001c54:	e1a02001 	mov	r2, r1
 1001c58:	e59f00a4 	ldr	r0, [pc, #164]	; 1001d04 <NetLoop+0x308>
 1001c5c:	eb001c52 	bl	1008dac <printf>
 1001c60:	e59524d0 	ldr	r2, [r5, #1232]	; 0x4d0
 1001c64:	e59f109c 	ldr	r1, [pc, #156]	; 1001d08 <NetLoop+0x30c>
 1001c68:	e1a0000d 	mov	r0, sp
 1001c6c:	eb002dd3 	bl	100d3c0 <sprintf>
 1001c70:	e1a0100d 	mov	r1, sp
 1001c74:	e59f0090 	ldr	r0, [pc, #144]	; 1001d0c <NetLoop+0x310>
 1001c78:	eb001a65 	bl	1008614 <setenv>
 1001c7c:	e59f308c 	ldr	r3, [pc, #140]	; 1001d10 <NetLoop+0x314>
 1001c80:	e59f1080 	ldr	r1, [pc, #128]	; 1001d08 <NetLoop+0x30c>
 1001c84:	e5932000 	ldr	r2, [r3]
 1001c88:	e1a0000d 	mov	r0, sp
 1001c8c:	eb002dcb 	bl	100d3c0 <sprintf>
 1001c90:	e1a0100d 	mov	r1, sp
 1001c94:	e59f0078 	ldr	r0, [pc, #120]	; 1001d14 <NetLoop+0x318>
 1001c98:	e1a0400d 	mov	r4, sp
 1001c9c:	eb001a5c 	bl	1008614 <setenv>
 1001ca0:	eb000bbc 	bl	1004b98 <eth_halt>
 1001ca4:	e59f301c 	ldr	r3, [pc, #28]	; 1001cc8 <NetLoop+0x2cc>
 1001ca8:	e59304d0 	ldr	r0, [r3, #1232]	; 0x4d0
 1001cac:	e28dd014 	add	sp, sp, #20
 1001cb0:	e8bd84f0 	pop	{r4, r5, r6, r7, sl, pc}
 1001cb4:	eb000bb7 	bl	1004b98 <eth_halt>
 1001cb8:	e3e00000 	mvn	r0, #0
 1001cbc:	eafffffa 	b	1001cac <NetLoop+0x2b0>
 1001cc0:	01015208 	tsteq	r1, r8, lsl #4
 1001cc4:	010170cf 	smlabteq	r1, pc, r0, r7
 1001cc8:	01017200 	tsteq	r1, r0, lsl #4
 1001ccc:	00000113 	andeq	r0, r0, r3, lsl r1
 1001cd0:	0101123e 	tsteq	r1, lr, lsr r2
 1001cd4:	01011261 	tsteq	r1, r1, ror #4
 1001cd8:	01011280 	smlabbeq	r1, r0, r2, r1
 1001cdc:	01015218 	tsteq	r1, r8, lsl r2
 1001ce0:	010108c8 	smlabteq	r1, r8, r8, r0
 1001ce4:	0101129d 	tsteq	r1, sp, lsl r2
 1001ce8:	010178a0 	smlatbeq	r1, r0, r8, r7
 1001cec:	01011235 	tsteq	r1, r5, lsr r2
 1001cf0:	010178a4 	smlatbeq	r1, r4, r8, r7
 1001cf4:	00002710 	andeq	r2, r0, r0, lsl r7
 1001cf8:	010018b8 	strheq	r1, [r0, -r8]
 1001cfc:	01000e80 	smlabbeq	r0, r0, lr, r0
 1001d00:	010112bb 	strheq	r1, [r1, -fp]
 1001d04:	010112c3 	smlabteq	r1, r3, r2, r1
 1001d08:	010112e6 	smlatteq	r1, r6, r2, r1
 1001d0c:	010112ea 	smlatteq	r1, sl, r2, r1
 1001d10:	010143fc 	strdeq	r4, [r1, -ip]
 1001d14:	010112f3 	strdeq	r1, [r1, -r3]

01001d18 <__fswab16>:
 1001d18:	e1a00800 	lsl	r0, r0, #16
 1001d1c:	e1a03c20 	lsr	r3, r0, #24
 1001d20:	e1830420 	orr	r0, r3, r0, lsr #8
 1001d24:	e1a00800 	lsl	r0, r0, #16
 1001d28:	e1a00820 	lsr	r0, r0, #16
 1001d2c:	e12fff1e 	bx	lr

01001d30 <TftpSend>:
 1001d30:	e59f314c 	ldr	r3, [pc, #332]	; 1001e84 <TftpSend+0x154>
 1001d34:	e92d4071 	push	{r0, r4, r5, r6, lr}
 1001d38:	e5936000 	ldr	r6, [r3]
 1001d3c:	ebfffb9b 	bl	1000bb0 <NetEthHdrSize>
 1001d40:	e59f2140 	ldr	r2, [pc, #320]	; 1001e88 <TftpSend+0x158>
 1001d44:	e5923000 	ldr	r3, [r2]
 1001d48:	e2433001 	sub	r3, r3, #1
 1001d4c:	e280001c 	add	r0, r0, #28
 1001d50:	e0864000 	add	r4, r6, r0
 1001d54:	e3530004 	cmp	r3, #4
 1001d58:	979ff103 	ldrls	pc, [pc, r3, lsl #2]
 1001d5c:	ea000004 	b	1001d74 <TftpSend+0x44>
 1001d60:	01001d7c 	tsteq	r0, ip, ror sp
 1001d64:	01001e08 	tsteq	r0, r8, lsl #28
 1001d68:	01001e24 	tsteq	r0, r4, lsr #28
 1001d6c:	01001e48 	tsteq	r0, r8, asr #28
 1001d70:	01001e08 	tsteq	r0, r8, lsl #28
 1001d74:	e3a04000 	mov	r4, #0
 1001d78:	ea00003a 	b	1001e68 <TftpSend+0x138>
 1001d7c:	e3a03c01 	mov	r3, #256	; 0x100
 1001d80:	e2845002 	add	r5, r4, #2
 1001d84:	e18630b0 	strh	r3, [r6, r0]
 1001d88:	e59f10fc 	ldr	r1, [pc, #252]	; 1001e8c <TftpSend+0x15c>
 1001d8c:	e1a00005 	mov	r0, r5
 1001d90:	eb002a25 	bl	100c62c <strcpy>
 1001d94:	e59f00f0 	ldr	r0, [pc, #240]	; 1001e8c <TftpSend+0x15c>
 1001d98:	eb002a80 	bl	100c7a0 <strlen>
 1001d9c:	e59f10ec 	ldr	r1, [pc, #236]	; 1001e90 <TftpSend+0x160>
 1001da0:	e2800001 	add	r0, r0, #1
 1001da4:	e0856000 	add	r6, r5, r0
 1001da8:	e1a00006 	mov	r0, r6
 1001dac:	eb002a1e 	bl	100c62c <strcpy>
 1001db0:	e286500e 	add	r5, r6, #14
 1001db4:	e59f10d8 	ldr	r1, [pc, #216]	; 1001e94 <TftpSend+0x164>
 1001db8:	e2860006 	add	r0, r6, #6
 1001dbc:	eb002a1a 	bl	100c62c <strcpy>
 1001dc0:	e59f10d0 	ldr	r1, [pc, #208]	; 1001e98 <TftpSend+0x168>
 1001dc4:	e3a02005 	mov	r2, #5
 1001dc8:	e1a00005 	mov	r0, r5
 1001dcc:	eb002d7b 	bl	100d3c0 <sprintf>
 1001dd0:	e1a00005 	mov	r0, r5
 1001dd4:	eb002a71 	bl	100c7a0 <strlen>
 1001dd8:	e3a0c000 	mov	ip, #0
 1001ddc:	e1a0200c 	mov	r2, ip
 1001de0:	e59f10b4 	ldr	r1, [pc, #180]	; 1001e9c <TftpSend+0x16c>
 1001de4:	e59f30b4 	ldr	r3, [pc, #180]	; 1001ea0 <TftpSend+0x170>
 1001de8:	e58dc000 	str	ip, [sp]
 1001dec:	e2800001 	add	r0, r0, #1
 1001df0:	e0855000 	add	r5, r5, r0
 1001df4:	e1a00005 	mov	r0, r5
 1001df8:	eb002d70 	bl	100d3c0 <sprintf>
 1001dfc:	e0855000 	add	r5, r5, r0
 1001e00:	e0644005 	rsb	r4, r4, r5
 1001e04:	ea000017 	b	1001e68 <TftpSend+0x138>
 1001e08:	e3a03b01 	mov	r3, #1024	; 0x400
 1001e0c:	e18630b0 	strh	r3, [r6, r0]
 1001e10:	e1d208b4 	ldrh	r0, [r2, #132]	; 0x84
 1001e14:	ebffffbf 	bl	1001d18 <__fswab16>
 1001e18:	e1c400b2 	strh	r0, [r4, #2]
 1001e1c:	e3a04004 	mov	r4, #4
 1001e20:	ea000010 	b	1001e68 <TftpSend+0x138>
 1001e24:	e3a03c05 	mov	r3, #1280	; 0x500
 1001e28:	e18630b0 	strh	r3, [r6, r0]
 1001e2c:	e3a03c03 	mov	r3, #768	; 0x300
 1001e30:	e2840004 	add	r0, r4, #4
 1001e34:	e1c430b2 	strh	r3, [r4, #2]
 1001e38:	e59f1064 	ldr	r1, [pc, #100]	; 1001ea4 <TftpSend+0x174>
 1001e3c:	eb0029fa 	bl	100c62c <strcpy>
 1001e40:	e3a04013 	mov	r4, #19
 1001e44:	ea000007 	b	1001e68 <TftpSend+0x138>
 1001e48:	e3a03c05 	mov	r3, #1280	; 0x500
 1001e4c:	e18630b0 	strh	r3, [r6, r0]
 1001e50:	e3a03c02 	mov	r3, #512	; 0x200
 1001e54:	e2840004 	add	r0, r4, #4
 1001e58:	e1c430b2 	strh	r3, [r4, #2]
 1001e5c:	e59f1044 	ldr	r1, [pc, #68]	; 1001ea8 <TftpSend+0x178>
 1001e60:	eb0029f1 	bl	100c62c <strcpy>
 1001e64:	e3a04017 	mov	r4, #23
 1001e68:	e59f2018 	ldr	r2, [pc, #24]	; 1001e88 <TftpSend+0x158>
 1001e6c:	e59f0038 	ldr	r0, [pc, #56]	; 1001eac <TftpSend+0x17c>
 1001e70:	e2821088 	add	r1, r2, #136	; 0x88
 1001e74:	e891000e 	ldm	r1, {r1, r2, r3}
 1001e78:	e58d4000 	str	r4, [sp]
 1001e7c:	ebfffe01 	bl	1001688 <NetSendUDPPacket>
 1001e80:	e8bd8078 	pop	{r3, r4, r5, r6, pc}
 1001e84:	01015224 	tsteq	r1, r4, lsr #4
 1001e88:	010177dc 	ldrdeq	r7, [r1, -ip]
 1001e8c:	010177e0 	smlatteq	r1, r0, r7, r7
 1001e90:	010112fc 	strdeq	r1, [r1, -ip]
 1001e94:	01011302 	tsteq	r1, r2, lsl #6
 1001e98:	0101130a 	tsteq	r1, sl, lsl #6
 1001e9c:	0101130e 	tsteq	r1, lr, lsl #6
 1001ea0:	000005bc 	strheq	r0, [r0], -ip
 1001ea4:	0101131c 	tsteq	r1, ip, lsl r3
 1001ea8:	0101132b 	tsteq	r1, fp, lsr #6
 1001eac:	01015250 	tsteq	r1, r0, asr r2

01001eb0 <TftpStart>:
 1001eb0:	e92d4073 	push	{r0, r1, r4, r5, r6, lr}
 1001eb4:	e59f6214 	ldr	r6, [pc, #532]	; 10020d0 <TftpStart+0x220>
 1001eb8:	e59f3214 	ldr	r3, [pc, #532]	; 10020d4 <TftpStart+0x224>
 1001ebc:	e5d65000 	ldrb	r5, [r6]
 1001ec0:	e59f4210 	ldr	r4, [pc, #528]	; 10020d8 <TftpStart+0x228>
 1001ec4:	e5933000 	ldr	r3, [r3]
 1001ec8:	e3550000 	cmp	r5, #0
 1001ecc:	e5843088 	str	r3, [r4, #136]	; 0x88
 1001ed0:	1a000015 	bne	1001f2c <TftpStart+0x7c>
 1001ed4:	e59f3200 	ldr	r3, [pc, #512]	; 10020dc <TftpStart+0x22c>
 1001ed8:	e2840094 	add	r0, r4, #148	; 0x94
 1001edc:	e593c000 	ldr	ip, [r3]
 1001ee0:	e59f11f8 	ldr	r1, [pc, #504]	; 10020e0 <TftpStart+0x230>
 1001ee4:	e1a0342c 	lsr	r3, ip, #8
 1001ee8:	e1a0e82c 	lsr	lr, ip, #16
 1001eec:	e20ee0ff 	and	lr, lr, #255	; 0xff
 1001ef0:	e20c20ff 	and	r2, ip, #255	; 0xff
 1001ef4:	e20330ff 	and	r3, r3, #255	; 0xff
 1001ef8:	e1a0cc2c 	lsr	ip, ip, #24
 1001efc:	e58de000 	str	lr, [sp]
 1001f00:	e58dc004 	str	ip, [sp, #4]
 1001f04:	eb002d2d 	bl	100d3c0 <sprintf>
 1001f08:	e2841094 	add	r1, r4, #148	; 0x94
 1001f0c:	e2840004 	add	r0, r4, #4
 1001f10:	e3a02080 	mov	r2, #128	; 0x80
 1001f14:	eb0029cb 	bl	100c648 <strncpy>
 1001f18:	e2841004 	add	r1, r4, #4
 1001f1c:	e59f01c0 	ldr	r0, [pc, #448]	; 10020e4 <TftpStart+0x234>
 1001f20:	e5c45083 	strb	r5, [r4, #131]	; 0x83
 1001f24:	eb001ba0 	bl	1008dac <printf>
 1001f28:	ea000013 	b	1001f7c <TftpStart+0xcc>
 1001f2c:	e1a00006 	mov	r0, r6
 1001f30:	e3a0103a 	mov	r1, #58	; 0x3a
 1001f34:	eb002a0e 	bl	100c774 <strchr>
 1001f38:	e2505000 	subs	r5, r0, #0
 1001f3c:	1a000005 	bne	1001f58 <TftpStart+0xa8>
 1001f40:	e1a01006 	mov	r1, r6
 1001f44:	e2840004 	add	r0, r4, #4
 1001f48:	e3a02080 	mov	r2, #128	; 0x80
 1001f4c:	eb0029bd 	bl	100c648 <strncpy>
 1001f50:	e5c45083 	strb	r5, [r4, #131]	; 0x83
 1001f54:	ea000008 	b	1001f7c <TftpStart+0xcc>
 1001f58:	e1a00006 	mov	r0, r6
 1001f5c:	ebfffaf5 	bl	1000b38 <string_to_ip>
 1001f60:	e2851001 	add	r1, r5, #1
 1001f64:	e3a02080 	mov	r2, #128	; 0x80
 1001f68:	e5840088 	str	r0, [r4, #136]	; 0x88
 1001f6c:	e2840004 	add	r0, r4, #4
 1001f70:	eb0029b4 	bl	100c648 <strncpy>
 1001f74:	e3a03000 	mov	r3, #0
 1001f78:	e5c43083 	strb	r3, [r4, #131]	; 0x83
 1001f7c:	e59f5154 	ldr	r5, [pc, #340]	; 10020d8 <TftpStart+0x228>
 1001f80:	e59f0160 	ldr	r0, [pc, #352]	; 10020e8 <TftpStart+0x238>
 1001f84:	eb001b76 	bl	1008d64 <puts>
 1001f88:	e59f614c 	ldr	r6, [pc, #332]	; 10020dc <TftpStart+0x22c>
 1001f8c:	e5950088 	ldr	r0, [r5, #136]	; 0x88
 1001f90:	ebfffb40 	bl	1000c98 <print_IPaddr>
 1001f94:	e59f4150 	ldr	r4, [pc, #336]	; 10020ec <TftpStart+0x23c>
 1001f98:	e59f0150 	ldr	r0, [pc, #336]	; 10020f0 <TftpStart+0x240>
 1001f9c:	eb001b70 	bl	1008d64 <puts>
 1001fa0:	e5960000 	ldr	r0, [r6]
 1001fa4:	ebfffb3b 	bl	1000c98 <print_IPaddr>
 1001fa8:	e5943000 	ldr	r3, [r4]
 1001fac:	e3530000 	cmp	r3, #0
 1001fb0:	0a00000d 	beq	1001fec <TftpStart+0x13c>
 1001fb4:	e59f3138 	ldr	r3, [pc, #312]	; 10020f4 <TftpStart+0x244>
 1001fb8:	e5933000 	ldr	r3, [r3]
 1001fbc:	e3530000 	cmp	r3, #0
 1001fc0:	0a000009 	beq	1001fec <TftpStart+0x13c>
 1001fc4:	e5962000 	ldr	r2, [r6]
 1001fc8:	e5951088 	ldr	r1, [r5, #136]	; 0x88
 1001fcc:	e0032002 	and	r2, r3, r2
 1001fd0:	e0033001 	and	r3, r3, r1
 1001fd4:	e1520003 	cmp	r2, r3
 1001fd8:	0a000003 	beq	1001fec <TftpStart+0x13c>
 1001fdc:	e59f0114 	ldr	r0, [pc, #276]	; 10020f8 <TftpStart+0x248>
 1001fe0:	eb001b5f 	bl	1008d64 <puts>
 1001fe4:	e5940000 	ldr	r0, [r4]
 1001fe8:	ebfffb2a 	bl	1000c98 <print_IPaddr>
 1001fec:	e3a0000a 	mov	r0, #10
 1001ff0:	e59f4104 	ldr	r4, [pc, #260]	; 10020fc <TftpStart+0x24c>
 1001ff4:	eb001bee 	bl	1008fb4 <putc>
 1001ff8:	e59f1100 	ldr	r1, [pc, #256]	; 1002100 <TftpStart+0x250>
 1001ffc:	e59f0100 	ldr	r0, [pc, #256]	; 1002104 <TftpStart+0x254>
 1002000:	eb001b69 	bl	1008dac <printf>
 1002004:	e1d410b0 	ldrh	r1, [r4]
 1002008:	e3510000 	cmp	r1, #0
 100200c:	0a000006 	beq	100202c <TftpStart+0x17c>
 1002010:	e1a01481 	lsl	r1, r1, #9
 1002014:	e59f00ec 	ldr	r0, [pc, #236]	; 1002108 <TftpStart+0x258>
 1002018:	eb001b63 	bl	1008dac <printf>
 100201c:	e1d400b0 	ldrh	r0, [r4]
 1002020:	e59f10e4 	ldr	r1, [pc, #228]	; 100210c <TftpStart+0x25c>
 1002024:	e1a00480 	lsl	r0, r0, #9
 1002028:	eb002732 	bl	100bcf8 <print_size>
 100202c:	e3a0000a 	mov	r0, #10
 1002030:	eb001bdf 	bl	1008fb4 <putc>
 1002034:	e59f30d4 	ldr	r3, [pc, #212]	; 1002110 <TftpStart+0x260>
 1002038:	e59f40d4 	ldr	r4, [pc, #212]	; 1002114 <TftpStart+0x264>
 100203c:	e5931000 	ldr	r1, [r3]
 1002040:	e59f00d0 	ldr	r0, [pc, #208]	; 1002118 <TftpStart+0x268>
 1002044:	eb001b58 	bl	1008dac <printf>
 1002048:	e59f00cc 	ldr	r0, [pc, #204]	; 100211c <TftpStart+0x26c>
 100204c:	eb001b44 	bl	1008d64 <puts>
 1002050:	e5943000 	ldr	r3, [r4]
 1002054:	e594200c 	ldr	r2, [r4, #12]
 1002058:	e5842008 	str	r2, [r4, #8]
 100205c:	e59f10bc 	ldr	r1, [pc, #188]	; 1002120 <TftpStart+0x270>
 1002060:	e1a00003 	mov	r0, r3
 1002064:	e5843004 	str	r3, [r4, #4]
 1002068:	ebfffd7a 	bl	1001658 <NetSetTimeout>
 100206c:	e59f5064 	ldr	r5, [pc, #100]	; 10020d8 <TftpStart+0x228>
 1002070:	e59f00ac 	ldr	r0, [pc, #172]	; 1002124 <TftpStart+0x274>
 1002074:	ebfffa63 	bl	1000a08 <NetSetHandler>
 1002078:	e3a03045 	mov	r3, #69	; 0x45
 100207c:	e3a06000 	mov	r6, #0
 1002080:	e585308c 	str	r3, [r5, #140]	; 0x8c
 1002084:	e3a03001 	mov	r3, #1
 1002088:	e5853000 	str	r3, [r5]
 100208c:	e1a00006 	mov	r0, r6
 1002090:	e58560a4 	str	r6, [r5, #164]	; 0xa4
 1002094:	eb002694 	bl	100baec <get_timer>
 1002098:	e3a01b03 	mov	r1, #3072	; 0xc00
 100209c:	eb003915 	bl	10104f8 <__umodsi3>
 10020a0:	e1a01006 	mov	r1, r6
 10020a4:	e3a02006 	mov	r2, #6
 10020a8:	e5856084 	str	r6, [r5, #132]	; 0x84
 10020ac:	e2803b01 	add	r3, r0, #1024	; 0x400
 10020b0:	e5853090 	str	r3, [r5, #144]	; 0x90
 10020b4:	e59f006c 	ldr	r0, [pc, #108]	; 1002128 <TftpStart+0x278>
 10020b8:	eb002a35 	bl	100c994 <memset>
 10020bc:	e3a03c02 	mov	r3, #512	; 0x200
 10020c0:	e1c431b0 	strh	r3, [r4, #16]
 10020c4:	e28dd008 	add	sp, sp, #8
 10020c8:	e8bd4070 	pop	{r4, r5, r6, lr}
 10020cc:	eaffff17 	b	1001d30 <TftpSend>
 10020d0:	0101775c 	tsteq	r1, ip, asr r7
 10020d4:	0101524c 	tsteq	r1, ip, asr #4
 10020d8:	010177dc 	ldrdeq	r7, [r1, -ip]
 10020dc:	01015214 	tsteq	r1, r4, lsl r2
 10020e0:	0101133e 	tsteq	r1, lr, lsr r3
 10020e4:	01011357 	tsteq	r1, r7, asr r3
 10020e8:	01011383 	smlabbeq	r1, r3, r3, r1
 10020ec:	01015230 	tsteq	r1, r0, lsr r2
 10020f0:	01011395 	tsteq	r1, r5, lsl r3
 10020f4:	0101522c 	tsteq	r1, ip, lsr #4
 10020f8:	010113aa 	smlatbeq	r1, sl, r3, r1
 10020fc:	01017758 	tsteq	r1, r8, asr r7
 1002100:	010177e0 	smlatteq	r1, r0, r7, r7
 1002104:	010113c5 	smlabteq	r1, r5, r3, r1
 1002108:	010113d4 	ldrdeq	r1, [r1, -r4]
 100210c:	01012d3d 	tsteq	r1, sp, lsr sp
 1002110:	010143fc 	strdeq	r4, [r1, -ip]
 1002114:	010143dc 	ldrdeq	r4, [r1, -ip]
 1002118:	010113eb 	smlatteq	r1, fp, r3, r1
 100211c:	01011400 	tsteq	r1, r0, lsl #8
 1002120:	0100212c 	tsteq	r0, ip, lsr #2
 1002124:	01002190 	tsteq	r0, r0, lsl r1
 1002128:	01015250 	tsteq	r1, r0, asr r2

0100212c <TftpTimeout>:
 100212c:	e59f3048 	ldr	r3, [pc, #72]	; 100217c <TftpTimeout+0x50>
 1002130:	e92d4010 	push	{r4, lr}
 1002134:	e59f4044 	ldr	r4, [pc, #68]	; 1002180 <TftpTimeout+0x54>
 1002138:	e59320a4 	ldr	r2, [r3, #164]	; 0xa4
 100213c:	e5941008 	ldr	r1, [r4, #8]
 1002140:	e2822001 	add	r2, r2, #1
 1002144:	e1520001 	cmp	r2, r1
 1002148:	e58320a4 	str	r2, [r3, #164]	; 0xa4
 100214c:	da000003 	ble	1002160 <TftpTimeout+0x34>
 1002150:	e59f002c 	ldr	r0, [pc, #44]	; 1002184 <TftpTimeout+0x58>
 1002154:	eb001b02 	bl	1008d64 <puts>
 1002158:	e8bd4010 	pop	{r4, lr}
 100215c:	eafffd99 	b	10017c8 <NetStartAgain>
 1002160:	e59f0020 	ldr	r0, [pc, #32]	; 1002188 <TftpTimeout+0x5c>
 1002164:	eb001afe 	bl	1008d64 <puts>
 1002168:	e5940004 	ldr	r0, [r4, #4]
 100216c:	e59f1018 	ldr	r1, [pc, #24]	; 100218c <TftpTimeout+0x60>
 1002170:	ebfffd38 	bl	1001658 <NetSetTimeout>
 1002174:	e8bd4010 	pop	{r4, lr}
 1002178:	eafffeec 	b	1001d30 <TftpSend>
 100217c:	010177dc 	ldrdeq	r7, [r1, -ip]
 1002180:	010143dc 	ldrdeq	r4, [r1, -ip]
 1002184:	0101140c 	tsteq	r1, ip, lsl #8
 1002188:	01011433 	tsteq	r1, r3, lsr r4
 100218c:	0100212c 	tsteq	r0, ip, lsr #2

01002190 <TftpHandler>:
 1002190:	e59fc268 	ldr	ip, [pc, #616]	; 1002400 <TftpHandler+0x270>
 1002194:	e92d44f0 	push	{r4, r5, r6, r7, sl, lr}
 1002198:	e1a04000 	mov	r4, r0
 100219c:	e59c0090 	ldr	r0, [ip, #144]	; 0x90
 10021a0:	e1a05002 	mov	r5, r2
 10021a4:	e1510000 	cmp	r1, r0
 10021a8:	18bd84f0 	popne	{r4, r5, r6, r7, sl, pc}
 10021ac:	e59c2000 	ldr	r2, [ip]
 10021b0:	e3520001 	cmp	r2, #1
 10021b4:	0a000002 	beq	10021c4 <TftpHandler+0x34>
 10021b8:	e59c208c 	ldr	r2, [ip, #140]	; 0x8c
 10021bc:	e1550002 	cmp	r5, r2
 10021c0:	18bd84f0 	popne	{r4, r5, r6, r7, sl, pc}
 10021c4:	e3530001 	cmp	r3, #1
 10021c8:	98bd84f0 	popls	{r4, r5, r6, r7, sl, pc}
 10021cc:	e1d400b0 	ldrh	r0, [r4]
 10021d0:	e243a002 	sub	sl, r3, #2
 10021d4:	ebfffecf 	bl	1001d18 <__fswab16>
 10021d8:	e2847002 	add	r7, r4, #2
 10021dc:	e3500005 	cmp	r0, #5
 10021e0:	0a00007c 	beq	10023d8 <TftpHandler+0x248>
 10021e4:	e3500006 	cmp	r0, #6
 10021e8:	0a000002 	beq	10021f8 <TftpHandler+0x68>
 10021ec:	e3500003 	cmp	r0, #3
 10021f0:	18bd84f0 	popne	{r4, r5, r6, r7, sl, pc}
 10021f4:	ea000018 	b	100225c <TftpHandler+0xcc>
 10021f8:	e59f3200 	ldr	r3, [pc, #512]	; 1002400 <TftpHandler+0x270>
 10021fc:	e3a02005 	mov	r2, #5
 1002200:	e583508c 	str	r5, [r3, #140]	; 0x8c
 1002204:	e5832000 	str	r2, [r3]
 1002208:	e1a05007 	mov	r5, r7
 100220c:	e3a04000 	mov	r4, #0
 1002210:	ea000009 	b	100223c <TftpHandler+0xac>
 1002214:	eb002938 	bl	100c6fc <strcmp>
 1002218:	e2855001 	add	r5, r5, #1
 100221c:	e2501000 	subs	r1, r0, #0
 1002220:	1a000005 	bne	100223c <TftpHandler+0xac>
 1002224:	e0870006 	add	r0, r7, r6
 1002228:	e3a0200a 	mov	r2, #10
 100222c:	eb002a54 	bl	100cb84 <simple_strtoul>
 1002230:	e59f31cc 	ldr	r3, [pc, #460]	; 1002404 <TftpHandler+0x274>
 1002234:	e1c301b0 	strh	r0, [r3, #16]
 1002238:	ea000005 	b	1002254 <TftpHandler+0xc4>
 100223c:	e2846008 	add	r6, r4, #8
 1002240:	e156000a 	cmp	r6, sl
 1002244:	e1a00005 	mov	r0, r5
 1002248:	e59f11b8 	ldr	r1, [pc, #440]	; 1002408 <TftpHandler+0x278>
 100224c:	e2844001 	add	r4, r4, #1
 1002250:	3affffef 	bcc	1002214 <TftpHandler+0x84>
 1002254:	e8bd44f0 	pop	{r4, r5, r6, r7, sl, lr}
 1002258:	eafffeb4 	b	1001d30 <TftpSend>
 100225c:	e35a0001 	cmp	sl, #1
 1002260:	98bd84f0 	popls	{r4, r5, r6, r7, sl, pc}
 1002264:	e1d400b2 	ldrh	r0, [r4, #2]
 1002268:	ebfffeaa 	bl	1001d18 <__fswab16>
 100226c:	e59f318c 	ldr	r3, [pc, #396]	; 1002400 <TftpHandler+0x270>
 1002270:	e3500000 	cmp	r0, #0
 1002274:	e1a06000 	mov	r6, r0
 1002278:	e5830084 	str	r0, [r3, #132]	; 0x84
 100227c:	1a00000b 	bne	10022b0 <TftpHandler+0x120>
 1002280:	e59f117c 	ldr	r1, [pc, #380]	; 1002404 <TftpHandler+0x274>
 1002284:	e59320ac 	ldr	r2, [r3, #172]	; 0xac
 1002288:	e593c0a8 	ldr	ip, [r3, #168]	; 0xa8
 100228c:	e1d111b0 	ldrh	r1, [r1, #16]
 1002290:	e28cc001 	add	ip, ip, #1
 1002294:	e0822801 	add	r2, r2, r1, lsl #16
 1002298:	e1a01a22 	lsr	r1, r2, #20
 100229c:	e59f0168 	ldr	r0, [pc, #360]	; 100240c <TftpHandler+0x27c>
 10022a0:	e583c0a8 	str	ip, [r3, #168]	; 0xa8
 10022a4:	e58320ac 	str	r2, [r3, #172]	; 0xac
 10022a8:	eb001abf 	bl	1008dac <printf>
 10022ac:	ea00000e 	b	10022ec <TftpHandler+0x15c>
 10022b0:	e2400001 	sub	r0, r0, #1
 10022b4:	e3a0100a 	mov	r1, #10
 10022b8:	eb00388e 	bl	10104f8 <__umodsi3>
 10022bc:	e3500000 	cmp	r0, #0
 10022c0:	1a000002 	bne	10022d0 <TftpHandler+0x140>
 10022c4:	e2800023 	add	r0, r0, #35	; 0x23
 10022c8:	eb001b39 	bl	1008fb4 <putc>
 10022cc:	ea000006 	b	10022ec <TftpHandler+0x15c>
 10022d0:	e1a00006 	mov	r0, r6
 10022d4:	e59f1134 	ldr	r1, [pc, #308]	; 1002410 <TftpHandler+0x280>
 10022d8:	eb003886 	bl	10104f8 <__umodsi3>
 10022dc:	e3500000 	cmp	r0, #0
 10022e0:	1a000001 	bne	10022ec <TftpHandler+0x15c>
 10022e4:	e59f0128 	ldr	r0, [pc, #296]	; 1002414 <TftpHandler+0x284>
 10022e8:	eb001a9d 	bl	1008d64 <puts>
 10022ec:	e59f310c 	ldr	r3, [pc, #268]	; 1002400 <TftpHandler+0x270>
 10022f0:	e5932000 	ldr	r2, [r3]
 10022f4:	e3520001 	cmp	r2, #1
 10022f8:	13520005 	cmpne	r2, #5
 10022fc:	1a00000c 	bne	1002334 <TftpHandler+0x1a4>
 1002300:	e5931084 	ldr	r1, [r3, #132]	; 0x84
 1002304:	e3a02000 	mov	r2, #0
 1002308:	e3a00002 	mov	r0, #2
 100230c:	e3510001 	cmp	r1, #1
 1002310:	e5830000 	str	r0, [r3]
 1002314:	e583508c 	str	r5, [r3, #140]	; 0x8c
 1002318:	e58320ac 	str	r2, [r3, #172]	; 0xac
 100231c:	e58320b0 	str	r2, [r3, #176]	; 0xb0
 1002320:	e58320a8 	str	r2, [r3, #168]	; 0xa8
 1002324:	0a000002 	beq	1002334 <TftpHandler+0x1a4>
 1002328:	e59f00e8 	ldr	r0, [pc, #232]	; 1002418 <TftpHandler+0x288>
 100232c:	eb001a9e 	bl	1008dac <printf>
 1002330:	ea000030 	b	10023f8 <TftpHandler+0x268>
 1002334:	e59f60c4 	ldr	r6, [pc, #196]	; 1002400 <TftpHandler+0x270>
 1002338:	e5963084 	ldr	r3, [r6, #132]	; 0x84
 100233c:	e59620b0 	ldr	r2, [r6, #176]	; 0xb0
 1002340:	e1530002 	cmp	r3, r2
 1002344:	08bd84f0 	popeq	{r4, r5, r6, r7, sl, pc}
 1002348:	e59f20cc 	ldr	r2, [pc, #204]	; 100241c <TftpHandler+0x28c>
 100234c:	e59f40b0 	ldr	r4, [pc, #176]	; 1002404 <TftpHandler+0x274>
 1002350:	e58630b0 	str	r3, [r6, #176]	; 0xb0
 1002354:	e3a0300a 	mov	r3, #10
 1002358:	e1a00002 	mov	r0, r2
 100235c:	e984000c 	stmib	r4, {r2, r3}
 1002360:	e59f10b8 	ldr	r1, [pc, #184]	; 1002420 <TftpHandler+0x290>
 1002364:	ebfffcbb 	bl	1001658 <NetSetTimeout>
 1002368:	e5965084 	ldr	r5, [r6, #132]	; 0x84
 100236c:	e1d421b0 	ldrh	r2, [r4, #16]
 1002370:	e59630ac 	ldr	r3, [r6, #172]	; 0xac
 1002374:	e2455001 	sub	r5, r5, #1
 1002378:	e0253592 	mla	r5, r2, r5, r3
 100237c:	e59f30a0 	ldr	r3, [pc, #160]	; 1002424 <TftpHandler+0x294>
 1002380:	e24a4002 	sub	r4, sl, #2
 1002384:	e5930000 	ldr	r0, [r3]
 1002388:	e2871002 	add	r1, r7, #2
 100238c:	e0850000 	add	r0, r5, r0
 1002390:	e1a02004 	mov	r2, r4
 1002394:	eb002990 	bl	100c9dc <memcpy>
 1002398:	e59f3088 	ldr	r3, [pc, #136]	; 1002428 <TftpHandler+0x298>
 100239c:	e0845005 	add	r5, r4, r5
 10023a0:	e5932000 	ldr	r2, [r3]
 10023a4:	e1520005 	cmp	r2, r5
 10023a8:	35835000 	strcc	r5, [r3]
 10023ac:	ebfffe5f 	bl	1001d30 <TftpSend>
 10023b0:	e59f304c 	ldr	r3, [pc, #76]	; 1002404 <TftpHandler+0x274>
 10023b4:	e1d331b0 	ldrh	r3, [r3, #16]
 10023b8:	e1540003 	cmp	r4, r3
 10023bc:	28bd84f0 	popcs	{r4, r5, r6, r7, sl, pc}
 10023c0:	e59f0064 	ldr	r0, [pc, #100]	; 100242c <TftpHandler+0x29c>
 10023c4:	eb001a66 	bl	1008d64 <puts>
 10023c8:	e59f3060 	ldr	r3, [pc, #96]	; 1002430 <TftpHandler+0x2a0>
 10023cc:	e3a02003 	mov	r2, #3
 10023d0:	e5832000 	str	r2, [r3]
 10023d4:	e8bd84f0 	pop	{r4, r5, r6, r7, sl, pc}
 10023d8:	e1d400b2 	ldrh	r0, [r4, #2]
 10023dc:	ebfffe4d 	bl	1001d18 <__fswab16>
 10023e0:	e2871002 	add	r1, r7, #2
 10023e4:	e1a02000 	mov	r2, r0
 10023e8:	e59f0044 	ldr	r0, [pc, #68]	; 1002434 <TftpHandler+0x2a4>
 10023ec:	eb001a6e 	bl	1008dac <printf>
 10023f0:	e59f0040 	ldr	r0, [pc, #64]	; 1002438 <TftpHandler+0x2a8>
 10023f4:	eb001a5a 	bl	1008d64 <puts>
 10023f8:	e8bd44f0 	pop	{r4, r5, r6, r7, sl, lr}
 10023fc:	eafffcf1 	b	10017c8 <NetStartAgain>
 1002400:	010177dc 	ldrdeq	r7, [r1, -ip]
 1002404:	010143dc 	ldrdeq	r4, [r1, -ip]
 1002408:	01011436 	tsteq	r1, r6, lsr r4
 100240c:	0101143e 	tsteq	r1, lr, lsr r4
 1002410:	0000028a 	andeq	r0, r0, sl, lsl #5
 1002414:	01011450 	tsteq	r1, r0, asr r4
 1002418:	01011454 	tsteq	r1, r4, asr r4
 100241c:	00001388 	andeq	r1, r0, r8, lsl #7
 1002420:	0100212c 	tsteq	r0, ip, lsr #2
 1002424:	010143fc 	strdeq	r4, [r1, -ip]
 1002428:	010176d0 	ldrdeq	r7, [r1, -r0]
 100242c:	01011493 	tsteq	r1, r3, lsl r4
 1002430:	01015208 	tsteq	r1, r8, lsl #4
 1002434:	0101149a 	tsteq	r1, sl, lsl r4
 1002438:	01011482 	smlabbeq	r1, r2, r4, r1

0100243c <__fswab16>:
 100243c:	e1a00800 	lsl	r0, r0, #16
 1002440:	e1a03c20 	lsr	r3, r0, #24
 1002444:	e1830420 	orr	r0, r3, r0, lsr #8
 1002448:	e1a00800 	lsl	r0, r0, #16
 100244c:	e1a00820 	lsr	r0, r0, #16
 1002450:	e12fff1e 	bx	lr

01002454 <__fswab32>:
 1002454:	e1a03c00 	lsl	r3, r0, #24
 1002458:	e2002cff 	and	r2, r0, #65280	; 0xff00
 100245c:	e1833c20 	orr	r3, r3, r0, lsr #24
 1002460:	e1833402 	orr	r3, r3, r2, lsl #8
 1002464:	e20008ff 	and	r0, r0, #16711680	; 0xff0000
 1002468:	e1830420 	orr	r0, r3, r0, lsr #8
 100246c:	e12fff1e 	bx	lr

01002470 <truncate_sz>:
 1002470:	e1520001 	cmp	r2, r1
 1002474:	e92d4010 	push	{r4, lr}
 1002478:	e1a03002 	mov	r3, r2
 100247c:	e1a04001 	mov	r4, r1
 1002480:	e1a01000 	mov	r1, r0
 1002484:	ba000003 	blt	1002498 <truncate_sz+0x28>
 1002488:	e1a03004 	mov	r3, r4
 100248c:	e59f000c 	ldr	r0, [pc, #12]	; 10024a0 <truncate_sz+0x30>
 1002490:	eb001a45 	bl	1008dac <printf>
 1002494:	e2443001 	sub	r3, r4, #1
 1002498:	e1a00003 	mov	r0, r3
 100249c:	e8bd8010 	pop	{r4, pc}
 10024a0:	010114b2 	strheq	r1, [r1, -r2]

010024a4 <NetCopyLong>:
 10024a4:	e3a02004 	mov	r2, #4
 10024a8:	ea00294b 	b	100c9dc <memcpy>

010024ac <NetCopyIP>:
 10024ac:	e3a02004 	mov	r2, #4
 10024b0:	ea002949 	b	100c9dc <memcpy>

010024b4 <NetReadLong>:
 10024b4:	e92d4001 	push	{r0, lr}
 10024b8:	e1a01000 	mov	r1, r0
 10024bc:	e3a02004 	mov	r2, #4
 10024c0:	e1a0000d 	mov	r0, sp
 10024c4:	eb002944 	bl	100c9dc <memcpy>
 10024c8:	e59d0000 	ldr	r0, [sp]
 10024cc:	e8bd8008 	pop	{r3, pc}

010024d0 <DhcpOptionsProcess>:
 10024d0:	e92d4ef0 	push	{r4, r5, r6, r7, r9, sl, fp, lr}
 10024d4:	e1a04000 	mov	r4, r0
 10024d8:	e1a06001 	mov	r6, r1
 10024dc:	e2809f89 	add	r9, r0, #548	; 0x224
 10024e0:	e281b06c 	add	fp, r1, #108	; 0x6c
 10024e4:	ea00005b 	b	1002658 <DhcpOptionsProcess+0x188>
 10024e8:	e3510033 	cmp	r1, #51	; 0x33
 10024ec:	e5d45001 	ldrb	r5, [r4, #1]
 10024f0:	0a000037 	beq	10025d4 <DhcpOptionsProcess+0x104>
 10024f4:	8a00000e 	bhi	1002534 <DhcpOptionsProcess+0x64>
 10024f8:	e3510006 	cmp	r1, #6
 10024fc:	0a000020 	beq	1002584 <DhcpOptionsProcess+0xb4>
 1002500:	8a000004 	bhi	1002518 <DhcpOptionsProcess+0x48>
 1002504:	e3510001 	cmp	r1, #1
 1002508:	0a000017 	beq	100256c <DhcpOptionsProcess+0x9c>
 100250c:	e3510003 	cmp	r1, #3
 1002510:	1a00004c 	bne	1002648 <DhcpOptionsProcess+0x178>
 1002514:	ea000016 	b	1002574 <DhcpOptionsProcess+0xa4>
 1002518:	e351000f 	cmp	r1, #15
 100251c:	0a00004b 	beq	1002650 <DhcpOptionsProcess+0x180>
 1002520:	e3510011 	cmp	r1, #17
 1002524:	0a00001d 	beq	10025a0 <DhcpOptionsProcess+0xd0>
 1002528:	e351000c 	cmp	r1, #12
 100252c:	1a000045 	bne	1002648 <DhcpOptionsProcess+0x178>
 1002530:	ea000015 	b	100258c <DhcpOptionsProcess+0xbc>
 1002534:	e351003b 	cmp	r1, #59	; 0x3b
 1002538:	8a000006 	bhi	1002558 <DhcpOptionsProcess+0x88>
 100253c:	e351003a 	cmp	r1, #58	; 0x3a
 1002540:	2a000042 	bcs	1002650 <DhcpOptionsProcess+0x180>
 1002544:	e3510035 	cmp	r1, #53	; 0x35
 1002548:	0a000040 	beq	1002650 <DhcpOptionsProcess+0x180>
 100254c:	e3510036 	cmp	r1, #54	; 0x36
 1002550:	1a00003c 	bne	1002648 <DhcpOptionsProcess+0x178>
 1002554:	ea000022 	b	10025e4 <DhcpOptionsProcess+0x114>
 1002558:	e3510042 	cmp	r1, #66	; 0x42
 100255c:	0a00003b 	beq	1002650 <DhcpOptionsProcess+0x180>
 1002560:	e3510043 	cmp	r1, #67	; 0x43
 1002564:	1a000037 	bne	1002648 <DhcpOptionsProcess+0x178>
 1002568:	ea00001f 	b	10025ec <DhcpOptionsProcess+0x11c>
 100256c:	e59f00fc 	ldr	r0, [pc, #252]	; 1002670 <DhcpOptionsProcess+0x1a0>
 1002570:	ea000000 	b	1002578 <DhcpOptionsProcess+0xa8>
 1002574:	e59f00f8 	ldr	r0, [pc, #248]	; 1002674 <DhcpOptionsProcess+0x1a4>
 1002578:	e2841002 	add	r1, r4, #2
 100257c:	ebffffca 	bl	10024ac <NetCopyIP>
 1002580:	ea000032 	b	1002650 <DhcpOptionsProcess+0x180>
 1002584:	e59f00ec 	ldr	r0, [pc, #236]	; 1002678 <DhcpOptionsProcess+0x1a8>
 1002588:	eafffffa 	b	1002578 <DhcpOptionsProcess+0xa8>
 100258c:	e3a01020 	mov	r1, #32
 1002590:	e1a02005 	mov	r2, r5
 1002594:	e59fa0e0 	ldr	sl, [pc, #224]	; 100267c <DhcpOptionsProcess+0x1ac>
 1002598:	e59f00e0 	ldr	r0, [pc, #224]	; 1002680 <DhcpOptionsProcess+0x1b0>
 100259c:	ea000003 	b	10025b0 <DhcpOptionsProcess+0xe0>
 10025a0:	e59fa0dc 	ldr	sl, [pc, #220]	; 1002684 <DhcpOptionsProcess+0x1b4>
 10025a4:	e59f00dc 	ldr	r0, [pc, #220]	; 1002688 <DhcpOptionsProcess+0x1b8>
 10025a8:	e3a01040 	mov	r1, #64	; 0x40
 10025ac:	e1a02005 	mov	r2, r5
 10025b0:	ebffffae 	bl	1002470 <truncate_sz>
 10025b4:	e2841002 	add	r1, r4, #2
 10025b8:	e1a07000 	mov	r7, r0
 10025bc:	e1a02007 	mov	r2, r7
 10025c0:	e1a0000a 	mov	r0, sl
 10025c4:	eb002904 	bl	100c9dc <memcpy>
 10025c8:	e3a03000 	mov	r3, #0
 10025cc:	e7ca3007 	strb	r3, [sl, r7]
 10025d0:	ea00001e 	b	1002650 <DhcpOptionsProcess+0x180>
 10025d4:	e59f00b0 	ldr	r0, [pc, #176]	; 100268c <DhcpOptionsProcess+0x1bc>
 10025d8:	e2841002 	add	r1, r4, #2
 10025dc:	ebffffb0 	bl	10024a4 <NetCopyLong>
 10025e0:	ea00001a 	b	1002650 <DhcpOptionsProcess+0x180>
 10025e4:	e59f00a4 	ldr	r0, [pc, #164]	; 1002690 <DhcpOptionsProcess+0x1c0>
 10025e8:	eaffffe2 	b	1002578 <DhcpOptionsProcess+0xa8>
 10025ec:	e1a02005 	mov	r2, r5
 10025f0:	e59f009c 	ldr	r0, [pc, #156]	; 1002694 <DhcpOptionsProcess+0x1c4>
 10025f4:	e3a01080 	mov	r1, #128	; 0x80
 10025f8:	ebffff9c 	bl	1002470 <truncate_sz>
 10025fc:	e5d6306c 	ldrb	r3, [r6, #108]	; 0x6c
 1002600:	e3500000 	cmp	r0, #0
 1002604:	d3a02000 	movle	r2, #0
 1002608:	c3a02001 	movgt	r2, #1
 100260c:	e3530000 	cmp	r3, #0
 1002610:	13a02000 	movne	r2, #0
 1002614:	e3520000 	cmp	r2, #0
 1002618:	e1a07000 	mov	r7, r0
 100261c:	0a00000b 	beq	1002650 <DhcpOptionsProcess+0x180>
 1002620:	e59f0070 	ldr	r0, [pc, #112]	; 1002698 <DhcpOptionsProcess+0x1c8>
 1002624:	eb0019e0 	bl	1008dac <printf>
 1002628:	e1a02007 	mov	r2, r7
 100262c:	e1a0000b 	mov	r0, fp
 1002630:	e2841002 	add	r1, r4, #2
 1002634:	eb0028e8 	bl	100c9dc <memcpy>
 1002638:	e0877006 	add	r7, r7, r6
 100263c:	e3a03000 	mov	r3, #0
 1002640:	e5c7306c 	strb	r3, [r7, #108]	; 0x6c
 1002644:	ea000001 	b	1002650 <DhcpOptionsProcess+0x180>
 1002648:	e59f004c 	ldr	r0, [pc, #76]	; 100269c <DhcpOptionsProcess+0x1cc>
 100264c:	eb0019d6 	bl	1008dac <printf>
 1002650:	e2855002 	add	r5, r5, #2
 1002654:	e0844005 	add	r4, r4, r5
 1002658:	e1540009 	cmp	r4, r9
 100265c:	28bd8ef0 	popcs	{r4, r5, r6, r7, r9, sl, fp, pc}
 1002660:	e5d41000 	ldrb	r1, [r4]
 1002664:	e35100ff 	cmp	r1, #255	; 0xff
 1002668:	1affff9e 	bne	10024e8 <DhcpOptionsProcess+0x18>
 100266c:	e8bd8ef0 	pop	{r4, r5, r6, r7, r9, sl, fp, pc}
 1002670:	0101522c 	tsteq	r1, ip, lsr #4
 1002674:	01015230 	tsteq	r1, r0, lsr r2
 1002678:	010176d4 	ldrdeq	r7, [r1, -r4]
 100267c:	010176f8 	strdeq	r7, [r1, -r8]
 1002680:	010114ea 	smlatteq	r1, sl, r4, r1
 1002684:	01017718 	tsteq	r1, r8, lsl r7
 1002688:	010114f4 	strdeq	r1, [r1, -r4]
 100268c:	01017890 	tsteq	r1, r0, lsl r8
 1002690:	01017894 	tsteq	r1, r4, lsl r8
 1002694:	010114fe 	strdeq	r1, [r1, -lr]
 1002698:	0101150c 	tsteq	r1, ip, lsl #10
 100269c:	0101153a 	tsteq	r1, sl, lsr r5

010026a0 <DhcpExtended>:
 10026a0:	e92d4ef0 	push	{r4, r5, r6, r7, r9, sl, fp, lr}
 10026a4:	e3a06063 	mov	r6, #99	; 0x63
 10026a8:	e1a04000 	mov	r4, r0
 10026ac:	e4c06001 	strb	r6, [r0], #1
 10026b0:	e2805001 	add	r5, r0, #1
 10026b4:	e285c001 	add	ip, r5, #1
 10026b8:	e28c7001 	add	r7, ip, #1
 10026bc:	e287a001 	add	sl, r7, #1
 10026c0:	e28a9001 	add	r9, sl, #1
 10026c4:	e24dd014 	sub	sp, sp, #20
 10026c8:	e289b001 	add	fp, r9, #1
 10026cc:	e58d7000 	str	r7, [sp]
 10026d0:	e28b7001 	add	r7, fp, #1
 10026d4:	e58d700c 	str	r7, [sp, #12]
 10026d8:	e2877001 	add	r7, r7, #1
 10026dc:	e58d7008 	str	r7, [sp, #8]
 10026e0:	e2877001 	add	r7, r7, #1
 10026e4:	e58d7004 	str	r7, [sp, #4]
 10026e8:	e3520000 	cmp	r2, #0
 10026ec:	e3e0707d 	mvn	r7, #125	; 0x7d
 10026f0:	e58d2010 	str	r2, [sp, #16]
 10026f4:	e5c47001 	strb	r7, [r4, #1]
 10026f8:	e3a07053 	mov	r7, #83	; 0x53
 10026fc:	e5c07001 	strb	r7, [r0, #1]
 1002700:	e3a00035 	mov	r0, #53	; 0x35
 1002704:	e5c56001 	strb	r6, [r5, #1]
 1002708:	e5cc0001 	strb	r0, [ip, #1]
 100270c:	e59dc000 	ldr	ip, [sp]
 1002710:	e3a00001 	mov	r0, #1
 1002714:	e5cc0001 	strb	r0, [ip, #1]
 1002718:	e3a02002 	mov	r2, #2
 100271c:	e5ca1001 	strb	r1, [sl, #1]
 1002720:	e3a01039 	mov	r1, #57	; 0x39
 1002724:	e5c91001 	strb	r1, [r9, #1]
 1002728:	e5cb2001 	strb	r2, [fp, #1]
 100272c:	e59d100c 	ldr	r1, [sp, #12]
 1002730:	e1a06003 	mov	r6, r3
 1002734:	e5c12001 	strb	r2, [r1, #1]
 1002738:	e59d7008 	ldr	r7, [sp, #8]
 100273c:	e282203e 	add	r2, r2, #62	; 0x3e
 1002740:	e5c72001 	strb	r2, [r7, #1]
 1002744:	e59da004 	ldr	sl, [sp, #4]
 1002748:	e08a5000 	add	r5, sl, r0
 100274c:	0a000011 	beq	1002798 <DhcpExtended+0xf8>
 1002750:	e59d0010 	ldr	r0, [sp, #16]
 1002754:	ebffff3e 	bl	1002454 <__fswab32>
 1002758:	e285c001 	add	ip, r5, #1
 100275c:	e28c1001 	add	r1, ip, #1
 1002760:	e2812001 	add	r2, r1, #1
 1002764:	e3a07036 	mov	r7, #54	; 0x36
 1002768:	e5ca7001 	strb	r7, [sl, #1]
 100276c:	e2823001 	add	r3, r2, #1
 1002770:	e3a07004 	mov	r7, #4
 1002774:	e5c57001 	strb	r7, [r5, #1]
 1002778:	e2835002 	add	r5, r3, #2
 100277c:	e1a09c40 	asr	r9, r0, #24
 1002780:	e1a0a840 	asr	sl, r0, #16
 1002784:	e1a07440 	asr	r7, r0, #8
 1002788:	e5cc9001 	strb	r9, [ip, #1]
 100278c:	e5c1a001 	strb	sl, [r1, #1]
 1002790:	e5c27001 	strb	r7, [r2, #1]
 1002794:	e5c30001 	strb	r0, [r3, #1]
 1002798:	e3560000 	cmp	r6, #0
 100279c:	0a000011 	beq	10027e8 <DhcpExtended+0x148>
 10027a0:	e1a00006 	mov	r0, r6
 10027a4:	ebffff2a 	bl	1002454 <__fswab32>
 10027a8:	e1a03005 	mov	r3, r5
 10027ac:	e3a02032 	mov	r2, #50	; 0x32
 10027b0:	e4c32001 	strb	r2, [r3], #1
 10027b4:	e283c001 	add	ip, r3, #1
 10027b8:	e28c1001 	add	r1, ip, #1
 10027bc:	e2812001 	add	r2, r1, #1
 10027c0:	e3a06004 	mov	r6, #4
 10027c4:	e5c56001 	strb	r6, [r5, #1]
 10027c8:	e2825002 	add	r5, r2, #2
 10027cc:	e1a0ac40 	asr	sl, r0, #24
 10027d0:	e1a07840 	asr	r7, r0, #16
 10027d4:	e1a06440 	asr	r6, r0, #8
 10027d8:	e5c3a001 	strb	sl, [r3, #1]
 10027dc:	e5cc7001 	strb	r7, [ip, #1]
 10027e0:	e5c16001 	strb	r6, [r1, #1]
 10027e4:	e5c20001 	strb	r0, [r2, #1]
 10027e8:	e1a03005 	mov	r3, r5
 10027ec:	e3a02037 	mov	r2, #55	; 0x37
 10027f0:	e4c32001 	strb	r2, [r3], #1
 10027f4:	e3a02000 	mov	r2, #0
 10027f8:	e5c52001 	strb	r2, [r5, #1]
 10027fc:	e2822001 	add	r2, r2, #1
 1002800:	e5c32001 	strb	r2, [r3, #1]
 1002804:	e5d52001 	ldrb	r2, [r5, #1]
 1002808:	e2833001 	add	r3, r3, #1
 100280c:	e2822001 	add	r2, r2, #1
 1002810:	e5c52001 	strb	r2, [r5, #1]
 1002814:	e3a02003 	mov	r2, #3
 1002818:	e5c32001 	strb	r2, [r3, #1]
 100281c:	e5d52001 	ldrb	r2, [r5, #1]
 1002820:	e2833001 	add	r3, r3, #1
 1002824:	e2822001 	add	r2, r2, #1
 1002828:	e5c52001 	strb	r2, [r5, #1]
 100282c:	e3a0200c 	mov	r2, #12
 1002830:	e5c32001 	strb	r2, [r3, #1]
 1002834:	e5d52001 	ldrb	r2, [r5, #1]
 1002838:	e2833001 	add	r3, r3, #1
 100283c:	e2822001 	add	r2, r2, #1
 1002840:	e5c52001 	strb	r2, [r5, #1]
 1002844:	e3a02011 	mov	r2, #17
 1002848:	e5c32001 	strb	r2, [r3, #1]
 100284c:	e5d52001 	ldrb	r2, [r5, #1]
 1002850:	e2850007 	add	r0, r5, #7
 1002854:	e2822001 	add	r2, r2, #1
 1002858:	e5c52001 	strb	r2, [r5, #1]
 100285c:	e3e02000 	mvn	r2, #0
 1002860:	e5c32002 	strb	r2, [r3, #2]
 1002864:	e0640000 	rsb	r0, r4, r0
 1002868:	ea000002 	b	1002878 <DhcpExtended+0x1d8>
 100286c:	e3a03000 	mov	r3, #0
 1002870:	e2800001 	add	r0, r0, #1
 1002874:	e5c53006 	strb	r3, [r5, #6]
 1002878:	e3500040 	cmp	r0, #64	; 0x40
 100287c:	e2855001 	add	r5, r5, #1
 1002880:	dafffff9 	ble	100286c <DhcpExtended+0x1cc>
 1002884:	e28dd014 	add	sp, sp, #20
 1002888:	e8bd8ef0 	pop	{r4, r5, r6, r7, r9, sl, fp, pc}

0100288c <T.64>:
 100288c:	e92d4001 	push	{r0, lr}
 1002890:	e3a03000 	mov	r3, #0
 1002894:	e28d1004 	add	r1, sp, #4
 1002898:	e5213004 	str	r3, [r1, #-4]!
 100289c:	e3a02004 	mov	r2, #4
 10028a0:	e1a0100d 	mov	r1, sp
 10028a4:	eb00284c 	bl	100c9dc <memcpy>
 10028a8:	e8bd8008 	pop	{r3, pc}

010028ac <DhcpHandler>:
 10028ac:	e3510044 	cmp	r1, #68	; 0x44
 10028b0:	03520043 	cmpeq	r2, #67	; 0x43
 10028b4:	e92d46f3 	push	{r0, r1, r4, r5, r6, r7, r9, sl, lr}
 10028b8:	e1a04000 	mov	r4, r0
 10028bc:	1a0000bd 	bne	1002bb8 <DhcpHandler+0x30c>
 10028c0:	e35300eb 	cmp	r3, #235	; 0xeb
 10028c4:	9a0000bb 	bls	1002bb8 <DhcpHandler+0x30c>
 10028c8:	e5d03000 	ldrb	r3, [r0]
 10028cc:	e2432001 	sub	r2, r3, #1
 10028d0:	e3530005 	cmp	r3, #5
 10028d4:	13520001 	cmpne	r2, #1
 10028d8:	9a000001 	bls	10028e4 <DhcpHandler+0x38>
 10028dc:	e3530006 	cmp	r3, #6
 10028e0:	1a0000b4 	bne	1002bb8 <DhcpHandler+0x30c>
 10028e4:	e5d43001 	ldrb	r3, [r4, #1]
 10028e8:	e3530001 	cmp	r3, #1
 10028ec:	1a0000b1 	bne	1002bb8 <DhcpHandler+0x30c>
 10028f0:	e5d43002 	ldrb	r3, [r4, #2]
 10028f4:	e3530006 	cmp	r3, #6
 10028f8:	1a0000ae 	bne	1002bb8 <DhcpHandler+0x30c>
 10028fc:	e2847004 	add	r7, r4, #4
 1002900:	e1a00007 	mov	r0, r7
 1002904:	ebfffeea 	bl	10024b4 <NetReadLong>
 1002908:	e59f32ac 	ldr	r3, [pc, #684]	; 1002bbc <DhcpHandler+0x310>
 100290c:	e5932008 	ldr	r2, [r3, #8]
 1002910:	e1500002 	cmp	r0, r2
 1002914:	0a00009f 	beq	1002b98 <DhcpHandler+0x2ec>
 1002918:	ea0000a6 	b	1002bb8 <DhcpHandler+0x30c>
 100291c:	e3a02004 	mov	r2, #4
 1002920:	e583200c 	str	r2, [r3, #12]
 1002924:	e28400ec 	add	r0, r4, #236	; 0xec
 1002928:	ebfffee1 	bl	10024b4 <NetReadLong>
 100292c:	e59f328c 	ldr	r3, [pc, #652]	; 1002bc0 <DhcpHandler+0x314>
 1002930:	e1500003 	cmp	r0, r3
 1002934:	1a000002 	bne	1002944 <DhcpHandler+0x98>
 1002938:	e28400f0 	add	r0, r4, #240	; 0xf0
 100293c:	e1a01004 	mov	r1, r4
 1002940:	ebfffee2 	bl	10024d0 <DhcpOptionsProcess>
 1002944:	e59f6278 	ldr	r6, [pc, #632]	; 1002bc4 <DhcpHandler+0x318>
 1002948:	e59f0278 	ldr	r0, [pc, #632]	; 1002bc8 <DhcpHandler+0x31c>
 100294c:	e59f1278 	ldr	r1, [pc, #632]	; 1002bcc <DhcpHandler+0x320>
 1002950:	ebfffb40 	bl	1001658 <NetSetTimeout>
 1002954:	e5965000 	ldr	r5, [r6]
 1002958:	e3a01000 	mov	r1, #0
 100295c:	e1a00005 	mov	r0, r5
 1002960:	e59f2268 	ldr	r2, [pc, #616]	; 1002bd0 <DhcpHandler+0x324>
 1002964:	eb00280a 	bl	100c994 <memset>
 1002968:	e59f1264 	ldr	r1, [pc, #612]	; 1002bd4 <DhcpHandler+0x328>
 100296c:	e1a00005 	mov	r0, r5
 1002970:	e3a02b02 	mov	r2, #2048	; 0x800
 1002974:	ebfff90e 	bl	1000db4 <NetSetEther>
 1002978:	e3a09006 	mov	r9, #6
 100297c:	e3a03000 	mov	r3, #0
 1002980:	e3a02001 	mov	r2, #1
 1002984:	e0855000 	add	r5, r5, r0
 1002988:	e285a01c 	add	sl, r5, #28
 100298c:	e5ca3003 	strb	r3, [sl, #3]
 1002990:	e1a00003 	mov	r0, r3
 1002994:	e5ca2001 	strb	r2, [sl, #1]
 1002998:	e5c5201c 	strb	r2, [r5, #28]
 100299c:	e5ca9002 	strb	r9, [sl, #2]
 10029a0:	eb002451 	bl	100baec <get_timer>
 10029a4:	e3a01ffa 	mov	r1, #1000	; 0x3e8
 10029a8:	eb0036ac 	bl	1010460 <__udivsi3>
 10029ac:	e1a00800 	lsl	r0, r0, #16
 10029b0:	e1a00820 	lsr	r0, r0, #16
 10029b4:	ebfffea0 	bl	100243c <__fswab16>
 10029b8:	e1ca00b8 	strh	r0, [sl, #8]
 10029bc:	e2850034 	add	r0, r5, #52	; 0x34
 10029c0:	ebffffb1 	bl	100288c <T.64>
 10029c4:	e1a02009 	mov	r2, r9
 10029c8:	e2850038 	add	r0, r5, #56	; 0x38
 10029cc:	e59f1204 	ldr	r1, [pc, #516]	; 1002bd8 <DhcpHandler+0x32c>
 10029d0:	eb002801 	bl	100c9dc <memcpy>
 10029d4:	e1a01007 	mov	r1, r7
 10029d8:	e2850020 	add	r0, r5, #32
 10029dc:	ebfffeb0 	bl	10024a4 <NetCopyLong>
 10029e0:	e2841010 	add	r1, r4, #16
 10029e4:	e28d0004 	add	r0, sp, #4
 10029e8:	ebfffeaf 	bl	10024ac <NetCopyIP>
 10029ec:	e59f21c8 	ldr	r2, [pc, #456]	; 1002bbc <DhcpHandler+0x310>
 10029f0:	e59d3004 	ldr	r3, [sp, #4]
 10029f4:	e5922004 	ldr	r2, [r2, #4]
 10029f8:	e2850f42 	add	r0, r5, #264	; 0x108
 10029fc:	e3a01003 	mov	r1, #3
 1002a00:	ebffff26 	bl	10026a0 <DhcpExtended>
 1002a04:	e3e01000 	mvn	r1, #0
 1002a08:	e3a02043 	mov	r2, #67	; 0x43
 1002a0c:	e3a03044 	mov	r3, #68	; 0x44
 1002a10:	e1a04000 	mov	r4, r0
 1002a14:	e284c0ec 	add	ip, r4, #236	; 0xec
 1002a18:	e1a00005 	mov	r0, r5
 1002a1c:	e58dc000 	str	ip, [sp]
 1002a20:	ebfff8a5 	bl	1000cbc <NetSetIP>
 1002a24:	e2841f45 	add	r1, r4, #276	; 0x114
 1002a28:	e5960000 	ldr	r0, [r6]
 1002a2c:	e2811002 	add	r1, r1, #2
 1002a30:	ebfff923 	bl	1000ec4 <NetSendPacket>
 1002a34:	ea00005f 	b	1002bb8 <DhcpHandler+0x30c>
 1002a38:	e28400ec 	add	r0, r4, #236	; 0xec
 1002a3c:	ebfffe9c 	bl	10024b4 <NetReadLong>
 1002a40:	e59f3178 	ldr	r3, [pc, #376]	; 1002bc0 <DhcpHandler+0x314>
 1002a44:	e1500003 	cmp	r0, r3
 1002a48:	028430f0 	addeq	r3, r4, #240	; 0xf0
 1002a4c:	1a000059 	bne	1002bb8 <DhcpHandler+0x30c>
 1002a50:	ea000008 	b	1002a78 <DhcpHandler+0x1cc>
 1002a54:	e3520035 	cmp	r2, #53	; 0x35
 1002a58:	1a000003 	bne	1002a6c <DhcpHandler+0x1c0>
 1002a5c:	e5d33002 	ldrb	r3, [r3, #2]
 1002a60:	e3530005 	cmp	r3, #5
 1002a64:	0a000007 	beq	1002a88 <DhcpHandler+0x1dc>
 1002a68:	ea000052 	b	1002bb8 <DhcpHandler+0x30c>
 1002a6c:	e5d32001 	ldrb	r2, [r3, #1]
 1002a70:	e2822002 	add	r2, r2, #2
 1002a74:	e0833002 	add	r3, r3, r2
 1002a78:	e5d32000 	ldrb	r2, [r3]
 1002a7c:	e35200ff 	cmp	r2, #255	; 0xff
 1002a80:	1afffff3 	bne	1002a54 <DhcpHandler+0x1a8>
 1002a84:	ea00004b 	b	1002bb8 <DhcpHandler+0x30c>
 1002a88:	e28400ec 	add	r0, r4, #236	; 0xec
 1002a8c:	ebfffe88 	bl	10024b4 <NetReadLong>
 1002a90:	e59f3128 	ldr	r3, [pc, #296]	; 1002bc0 <DhcpHandler+0x314>
 1002a94:	e1500003 	cmp	r0, r3
 1002a98:	1a000002 	bne	1002aa8 <DhcpHandler+0x1fc>
 1002a9c:	e28400f0 	add	r0, r4, #240	; 0xf0
 1002aa0:	e1a01004 	mov	r1, r4
 1002aa4:	ebfffe89 	bl	10024d0 <DhcpOptionsProcess>
 1002aa8:	e59f012c 	ldr	r0, [pc, #300]	; 1002bdc <DhcpHandler+0x330>
 1002aac:	e2841010 	add	r1, r4, #16
 1002ab0:	e2845014 	add	r5, r4, #20
 1002ab4:	ebfffe7c 	bl	10024ac <NetCopyIP>
 1002ab8:	e28d0004 	add	r0, sp, #4
 1002abc:	e1a01005 	mov	r1, r5
 1002ac0:	ebfffe79 	bl	10024ac <NetCopyIP>
 1002ac4:	e59d3004 	ldr	r3, [sp, #4]
 1002ac8:	e3530000 	cmp	r3, #0
 1002acc:	0a000002 	beq	1002adc <DhcpHandler+0x230>
 1002ad0:	e1a01005 	mov	r1, r5
 1002ad4:	e59f0104 	ldr	r0, [pc, #260]	; 1002be0 <DhcpHandler+0x334>
 1002ad8:	ebfffe73 	bl	10024ac <NetCopyIP>
 1002adc:	e59f3100 	ldr	r3, [pc, #256]	; 1002be4 <DhcpHandler+0x338>
 1002ae0:	e3a02006 	mov	r2, #6
 1002ae4:	e5931000 	ldr	r1, [r3]
 1002ae8:	e284406c 	add	r4, r4, #108	; 0x6c
 1002aec:	e0811002 	add	r1, r1, r2
 1002af0:	e59f00f0 	ldr	r0, [pc, #240]	; 1002be8 <DhcpHandler+0x33c>
 1002af4:	eb0027b8 	bl	100c9dc <memcpy>
 1002af8:	e1a00004 	mov	r0, r4
 1002afc:	eb002727 	bl	100c7a0 <strlen>
 1002b00:	e3500000 	cmp	r0, #0
 1002b04:	0a00000a 	beq	1002b34 <DhcpHandler+0x288>
 1002b08:	e59f00dc 	ldr	r0, [pc, #220]	; 1002bec <DhcpHandler+0x340>
 1002b0c:	eb00157d 	bl	1008108 <getenv>
 1002b10:	e3500000 	cmp	r0, #0
 1002b14:	1a000006 	bne	1002b34 <DhcpHandler+0x288>
 1002b18:	e1a01004 	mov	r1, r4
 1002b1c:	e59f00cc 	ldr	r0, [pc, #204]	; 1002bf0 <DhcpHandler+0x344>
 1002b20:	e3a02080 	mov	r2, #128	; 0x80
 1002b24:	ebfff7d6 	bl	1000a84 <copy_filename>
 1002b28:	e59f00bc 	ldr	r0, [pc, #188]	; 1002bec <DhcpHandler+0x340>
 1002b2c:	e59f10bc 	ldr	r1, [pc, #188]	; 1002bf0 <DhcpHandler+0x344>
 1002b30:	eb0016b7 	bl	1008614 <setenv>
 1002b34:	e59f3080 	ldr	r3, [pc, #128]	; 1002bbc <DhcpHandler+0x310>
 1002b38:	e3a02006 	mov	r2, #6
 1002b3c:	e583200c 	str	r2, [r3, #12]
 1002b40:	e59f00ac 	ldr	r0, [pc, #172]	; 1002bf4 <DhcpHandler+0x348>
 1002b44:	eb001886 	bl	1008d64 <puts>
 1002b48:	e59f308c 	ldr	r3, [pc, #140]	; 1002bdc <DhcpHandler+0x330>
 1002b4c:	e5930000 	ldr	r0, [r3]
 1002b50:	ebfff850 	bl	1000c98 <print_IPaddr>
 1002b54:	e3a0000a 	mov	r0, #10
 1002b58:	eb001915 	bl	1008fb4 <putc>
 1002b5c:	e59f0094 	ldr	r0, [pc, #148]	; 1002bf8 <DhcpHandler+0x34c>
 1002b60:	eb001568 	bl	1008108 <getenv>
 1002b64:	e3500000 	cmp	r0, #0
 1002b68:	0a000005 	beq	1002b84 <DhcpHandler+0x2d8>
 1002b6c:	e5d03000 	ldrb	r3, [r0]
 1002b70:	e353006e 	cmp	r3, #110	; 0x6e
 1002b74:	059f3080 	ldreq	r3, [pc, #128]	; 1002bfc <DhcpHandler+0x350>
 1002b78:	03a02003 	moveq	r2, #3
 1002b7c:	05832000 	streq	r2, [r3]
 1002b80:	0a00000c 	beq	1002bb8 <DhcpHandler+0x30c>
 1002b84:	ebfffcc9 	bl	1001eb0 <TftpStart>
 1002b88:	ea00000a 	b	1002bb8 <DhcpHandler+0x30c>
 1002b8c:	e59f006c 	ldr	r0, [pc, #108]	; 1002c00 <DhcpHandler+0x354>
 1002b90:	eb001873 	bl	1008d64 <puts>
 1002b94:	ea000007 	b	1002bb8 <DhcpHandler+0x30c>
 1002b98:	e593200c 	ldr	r2, [r3, #12]
 1002b9c:	e3520004 	cmp	r2, #4
 1002ba0:	0affffa4 	beq	1002a38 <DhcpHandler+0x18c>
 1002ba4:	e3520006 	cmp	r2, #6
 1002ba8:	0a000002 	beq	1002bb8 <DhcpHandler+0x30c>
 1002bac:	e3520003 	cmp	r2, #3
 1002bb0:	1afffff5 	bne	1002b8c <DhcpHandler+0x2e0>
 1002bb4:	eaffff58 	b	100291c <DhcpHandler+0x70>
 1002bb8:	e8bd86fc 	pop	{r2, r3, r4, r5, r6, r7, r9, sl, pc}
 1002bbc:	01017890 	tsteq	r1, r0, lsl r8
 1002bc0:	63538263 	cmpvs	r3, #805306374	; 0x30000006
 1002bc4:	01015224 	tsteq	r1, r4, lsr #4
 1002bc8:	00001388 	andeq	r1, r0, r8, lsl #7
 1002bcc:	01002db4 	strheq	r2, [r0, -r4]
 1002bd0:	000005ee 	andeq	r0, r0, lr, ror #11
 1002bd4:	010143d4 	ldrdeq	r4, [r1, -r4]
 1002bd8:	01015218 	tsteq	r1, r8, lsl r2
 1002bdc:	01015214 	tsteq	r1, r4, lsl r2
 1002be0:	0101524c 	tsteq	r1, ip, asr #4
 1002be4:	01015238 	tsteq	r1, r8, lsr r2
 1002be8:	01015250 	tsteq	r1, r0, asr r2
 1002bec:	01010ed9 	ldrdeq	r0, [r1, -r9]
 1002bf0:	0101775c 	tsteq	r1, ip, asr r7
 1002bf4:	01011566 	tsteq	r1, r6, ror #10
 1002bf8:	01011584 	smlabbeq	r1, r4, r5, r1
 1002bfc:	01015208 	tsteq	r1, r8, lsl #4
 1002c00:	0101158d 	smlabbeq	r1, sp, r5, r1

01002c04 <BootpRequest>:
 1002c04:	e92d4ef1 	push	{r0, r4, r5, r6, r7, r9, sl, fp, lr}
 1002c08:	e59f6178 	ldr	r6, [pc, #376]	; 1002d88 <BootpRequest+0x184>
 1002c0c:	e3a05000 	mov	r5, #0
 1002c10:	e5963010 	ldr	r3, [r6, #16]
 1002c14:	e59f0170 	ldr	r0, [pc, #368]	; 1002d8c <BootpRequest+0x188>
 1002c18:	e2833001 	add	r3, r3, #1
 1002c1c:	e1a01003 	mov	r1, r3
 1002c20:	e5863010 	str	r3, [r6, #16]
 1002c24:	e586500c 	str	r5, [r6, #12]
 1002c28:	eb00185f 	bl	1008dac <printf>
 1002c2c:	e59f315c 	ldr	r3, [pc, #348]	; 1002d90 <BootpRequest+0x18c>
 1002c30:	e1a01005 	mov	r1, r5
 1002c34:	e5934000 	ldr	r4, [r3]
 1002c38:	e59f2154 	ldr	r2, [pc, #340]	; 1002d94 <BootpRequest+0x190>
 1002c3c:	e1a00004 	mov	r0, r4
 1002c40:	eb002753 	bl	100c994 <memset>
 1002c44:	e3a02b02 	mov	r2, #2048	; 0x800
 1002c48:	e59f1148 	ldr	r1, [pc, #328]	; 1002d98 <BootpRequest+0x194>
 1002c4c:	e1a00004 	mov	r0, r4
 1002c50:	ebfff857 	bl	1000db4 <NetSetEther>
 1002c54:	e3a0a001 	mov	sl, #1
 1002c58:	e3a09006 	mov	r9, #6
 1002c5c:	e59f7138 	ldr	r7, [pc, #312]	; 1002d9c <BootpRequest+0x198>
 1002c60:	e0844000 	add	r4, r4, r0
 1002c64:	e284b01c 	add	fp, r4, #28
 1002c68:	e5c4a01c 	strb	sl, [r4, #28]
 1002c6c:	e5cba001 	strb	sl, [fp, #1]
 1002c70:	e5cb9002 	strb	r9, [fp, #2]
 1002c74:	e5cb5003 	strb	r5, [fp, #3]
 1002c78:	e1a00005 	mov	r0, r5
 1002c7c:	eb00239a 	bl	100baec <get_timer>
 1002c80:	e3a01ffa 	mov	r1, #1000	; 0x3e8
 1002c84:	eb0035f5 	bl	1010460 <__udivsi3>
 1002c88:	e1a00800 	lsl	r0, r0, #16
 1002c8c:	e1a00820 	lsr	r0, r0, #16
 1002c90:	ebfffde9 	bl	100243c <__fswab16>
 1002c94:	e1cb00b8 	strh	r0, [fp, #8]
 1002c98:	e2840028 	add	r0, r4, #40	; 0x28
 1002c9c:	ebfffefa 	bl	100288c <T.64>
 1002ca0:	e284002c 	add	r0, r4, #44	; 0x2c
 1002ca4:	ebfffef8 	bl	100288c <T.64>
 1002ca8:	e2840030 	add	r0, r4, #48	; 0x30
 1002cac:	ebfffef6 	bl	100288c <T.64>
 1002cb0:	e2840034 	add	r0, r4, #52	; 0x34
 1002cb4:	ebfffef4 	bl	100288c <T.64>
 1002cb8:	e1a02009 	mov	r2, r9
 1002cbc:	e1a01007 	mov	r1, r7
 1002cc0:	e2840038 	add	r0, r4, #56	; 0x38
 1002cc4:	eb002744 	bl	100c9dc <memcpy>
 1002cc8:	e2840088 	add	r0, r4, #136	; 0x88
 1002ccc:	e59f10cc 	ldr	r1, [pc, #204]	; 1002da0 <BootpRequest+0x19c>
 1002cd0:	e3a02080 	mov	r2, #128	; 0x80
 1002cd4:	ebfff76a 	bl	1000a84 <copy_filename>
 1002cd8:	e1a0100a 	mov	r1, sl
 1002cdc:	e1a02005 	mov	r2, r5
 1002ce0:	e1a03005 	mov	r3, r5
 1002ce4:	e2840f42 	add	r0, r4, #264	; 0x108
 1002ce8:	ebfffe6c 	bl	10026a0 <DhcpExtended>
 1002cec:	e5d71003 	ldrb	r1, [r7, #3]
 1002cf0:	e5d73002 	ldrb	r3, [r7, #2]
 1002cf4:	e5d72005 	ldrb	r2, [r7, #5]
 1002cf8:	e1a01801 	lsl	r1, r1, #16
 1002cfc:	e1811c03 	orr	r1, r1, r3, lsl #24
 1002d00:	e5d73004 	ldrb	r3, [r7, #4]
 1002d04:	e1817002 	orr	r7, r1, r2
 1002d08:	e1877403 	orr	r7, r7, r3, lsl #8
 1002d0c:	e5867008 	str	r7, [r6, #8]
 1002d10:	e1a0a000 	mov	sl, r0
 1002d14:	e1a00005 	mov	r0, r5
 1002d18:	eb002373 	bl	100baec <get_timer>
 1002d1c:	e0800007 	add	r0, r0, r7
 1002d20:	ebfffdcb 	bl	1002454 <__fswab32>
 1002d24:	e1a01006 	mov	r1, r6
 1002d28:	e5a10008 	str	r0, [r1, #8]!
 1002d2c:	e2840020 	add	r0, r4, #32
 1002d30:	ebfffddb 	bl	10024a4 <NetCopyLong>
 1002d34:	e28ac0ec 	add	ip, sl, #236	; 0xec
 1002d38:	e3a02043 	mov	r2, #67	; 0x43
 1002d3c:	e1a00004 	mov	r0, r4
 1002d40:	e3a03044 	mov	r3, #68	; 0x44
 1002d44:	e3e01000 	mvn	r1, #0
 1002d48:	e58dc000 	str	ip, [sp]
 1002d4c:	ebfff7da 	bl	1000cbc <NetSetIP>
 1002d50:	e59f104c 	ldr	r1, [pc, #76]	; 1002da4 <BootpRequest+0x1a0>
 1002d54:	e59f004c 	ldr	r0, [pc, #76]	; 1002da8 <BootpRequest+0x1a4>
 1002d58:	ebfffa3e 	bl	1001658 <NetSetTimeout>
 1002d5c:	e3a03003 	mov	r3, #3
 1002d60:	e59f0044 	ldr	r0, [pc, #68]	; 1002dac <BootpRequest+0x1a8>
 1002d64:	e586300c 	str	r3, [r6, #12]
 1002d68:	ebfff726 	bl	1000a08 <NetSetHandler>
 1002d6c:	e28a1f45 	add	r1, sl, #276	; 0x114
 1002d70:	e59f3018 	ldr	r3, [pc, #24]	; 1002d90 <BootpRequest+0x18c>
 1002d74:	e2811002 	add	r1, r1, #2
 1002d78:	e5930000 	ldr	r0, [r3]
 1002d7c:	e28dd004 	add	sp, sp, #4
 1002d80:	e8bd4ef0 	pop	{r4, r5, r6, r7, r9, sl, fp, lr}
 1002d84:	eafff84e 	b	1000ec4 <NetSendPacket>
 1002d88:	01017890 	tsteq	r1, r0, lsl r8
 1002d8c:	010115a2 	smlatbeq	r1, r2, r5, r1
 1002d90:	01015224 	tsteq	r1, r4, lsr #4
 1002d94:	000005ee 	andeq	r0, r0, lr, ror #11
 1002d98:	010143d4 	ldrdeq	r4, [r1, -r4]
 1002d9c:	01015218 	tsteq	r1, r8, lsl r2
 1002da0:	0101775c 	tsteq	r1, ip, asr r7
 1002da4:	01002db4 	strheq	r2, [r0, -r4]
 1002da8:	00000bb8 	strheq	r0, [r0], -r8
 1002dac:	010028ac 	smlatbeq	r0, ip, r8, r2

01002db0 <DhcpRequest>:
 1002db0:	eaffff93 	b	1002c04 <BootpRequest>

01002db4 <BootpTimeout>:
 1002db4:	e59f3030 	ldr	r3, [pc, #48]	; 1002dec <BootpTimeout+0x38>
 1002db8:	e52de004 	push	{lr}		; (str lr, [sp, #-4]!)
 1002dbc:	e5933010 	ldr	r3, [r3, #16]
 1002dc0:	e3530004 	cmp	r3, #4
 1002dc4:	da000003 	ble	1002dd8 <BootpTimeout+0x24>
 1002dc8:	e59f0020 	ldr	r0, [pc, #32]	; 1002df0 <BootpTimeout+0x3c>
 1002dcc:	eb0017e4 	bl	1008d64 <puts>
 1002dd0:	e49de004 	pop	{lr}		; (ldr lr, [sp], #4)
 1002dd4:	eafffa7b 	b	10017c8 <NetStartAgain>
 1002dd8:	e59f0014 	ldr	r0, [pc, #20]	; 1002df4 <BootpTimeout+0x40>
 1002ddc:	e59f1014 	ldr	r1, [pc, #20]	; 1002df8 <BootpTimeout+0x44>
 1002de0:	ebfffa1c 	bl	1001658 <NetSetTimeout>
 1002de4:	e49de004 	pop	{lr}		; (ldr lr, [sp], #4)
 1002de8:	eaffff85 	b	1002c04 <BootpRequest>
 1002dec:	01017890 	tsteq	r1, r0, lsl r8
 1002df0:	0101140c 	tsteq	r1, ip, lsl #8
 1002df4:	00001388 	andeq	r1, r0, r8, lsl #7
 1002df8:	01002db4 	strheq	r2, [r0, -r4]

01002dfc <RarpRequest>:
 1002dfc:	e59f30cc 	ldr	r3, [pc, #204]	; 1002ed0 <RarpRequest+0xd4>
 1002e00:	e92d46f0 	push	{r4, r5, r6, r7, r9, sl, lr}
 1002e04:	e5932000 	ldr	r2, [r3]
 1002e08:	e59f90c4 	ldr	r9, [pc, #196]	; 1002ed4 <RarpRequest+0xd8>
 1002e0c:	e2822001 	add	r2, r2, #1
 1002e10:	e5832000 	str	r2, [r3]
 1002e14:	e1a01002 	mov	r1, r2
 1002e18:	e59f00b8 	ldr	r0, [pc, #184]	; 1002ed8 <RarpRequest+0xdc>
 1002e1c:	eb0017e2 	bl	1008dac <printf>
 1002e20:	e5996000 	ldr	r6, [r9]
 1002e24:	e59f10b0 	ldr	r1, [pc, #176]	; 1002edc <RarpRequest+0xe0>
 1002e28:	e59f20b0 	ldr	r2, [pc, #176]	; 1002ee0 <RarpRequest+0xe4>
 1002e2c:	e1a00006 	mov	r0, r6
 1002e30:	ebfff7df 	bl	1000db4 <NetSetEther>
 1002e34:	e3a03c01 	mov	r3, #256	; 0x100
 1002e38:	e59f70a4 	ldr	r7, [pc, #164]	; 1002ee4 <RarpRequest+0xe8>
 1002e3c:	e3a05006 	mov	r5, #6
 1002e40:	e3a0a004 	mov	sl, #4
 1002e44:	e1a01007 	mov	r1, r7
 1002e48:	e1a02005 	mov	r2, r5
 1002e4c:	e0864000 	add	r4, r6, r0
 1002e50:	e18630b0 	strh	r3, [r6, r0]
 1002e54:	e3a03008 	mov	r3, #8
 1002e58:	e1c430b2 	strh	r3, [r4, #2]
 1002e5c:	e3a03c03 	mov	r3, #768	; 0x300
 1002e60:	e1c430b6 	strh	r3, [r4, #6]
 1002e64:	e5c45004 	strb	r5, [r4, #4]
 1002e68:	e5c4a005 	strb	sl, [r4, #5]
 1002e6c:	e2840008 	add	r0, r4, #8
 1002e70:	eb0026d9 	bl	100c9dc <memcpy>
 1002e74:	e1a0200a 	mov	r2, sl
 1002e78:	e59f1068 	ldr	r1, [pc, #104]	; 1002ee8 <RarpRequest+0xec>
 1002e7c:	e284000e 	add	r0, r4, #14
 1002e80:	eb0026d5 	bl	100c9dc <memcpy>
 1002e84:	e1a02005 	mov	r2, r5
 1002e88:	e1a01007 	mov	r1, r7
 1002e8c:	e2840012 	add	r0, r4, #18
 1002e90:	eb0026d1 	bl	100c9dc <memcpy>
 1002e94:	e3e03000 	mvn	r3, #0
 1002e98:	e5c4301b 	strb	r3, [r4, #27]
 1002e9c:	e5c43018 	strb	r3, [r4, #24]
 1002ea0:	e5c43019 	strb	r3, [r4, #25]
 1002ea4:	e5c4301a 	strb	r3, [r4, #26]
 1002ea8:	e5990000 	ldr	r0, [r9]
 1002eac:	e260101c 	rsb	r1, r0, #28
 1002eb0:	e0811004 	add	r1, r1, r4
 1002eb4:	ebfff802 	bl	1000ec4 <NetSendPacket>
 1002eb8:	e59f002c 	ldr	r0, [pc, #44]	; 1002eec <RarpRequest+0xf0>
 1002ebc:	e59f102c 	ldr	r1, [pc, #44]	; 1002ef0 <RarpRequest+0xf4>
 1002ec0:	ebfff9e4 	bl	1001658 <NetSetTimeout>
 1002ec4:	e59f0028 	ldr	r0, [pc, #40]	; 1002ef4 <RarpRequest+0xf8>
 1002ec8:	e8bd46f0 	pop	{r4, r5, r6, r7, r9, sl, lr}
 1002ecc:	eafff6cd 	b	1000a08 <NetSetHandler>
 1002ed0:	010178a4 	smlatbeq	r1, r4, r8, r7
 1002ed4:	01015224 	tsteq	r1, r4, lsr #4
 1002ed8:	010115b6 	strheq	r1, [r1, -r6]
 1002edc:	010143d4 	ldrdeq	r4, [r1, -r4]
 1002ee0:	00008035 	andeq	r8, r0, r5, lsr r0
 1002ee4:	01015218 	tsteq	r1, r8, lsl r2
 1002ee8:	01015214 	tsteq	r1, r4, lsl r2
 1002eec:	00001388 	andeq	r1, r0, r8, lsl #7
 1002ef0:	01002f38 	tsteq	r0, r8, lsr pc
 1002ef4:	01002ef8 	strdeq	r2, [r0, -r8]

01002ef8 <RarpHandler>:
 1002ef8:	e52de004 	push	{lr}		; (str lr, [sp, #-4]!)
 1002efc:	e59f002c 	ldr	r0, [pc, #44]	; 1002f30 <RarpHandler+0x38>
 1002f00:	eb001480 	bl	1008108 <getenv>
 1002f04:	e3500000 	cmp	r0, #0
 1002f08:	0a000006 	beq	1002f28 <RarpHandler+0x30>
 1002f0c:	e5d03000 	ldrb	r3, [r0]
 1002f10:	e353006e 	cmp	r3, #110	; 0x6e
 1002f14:	1a000003 	bne	1002f28 <RarpHandler+0x30>
 1002f18:	e59f3014 	ldr	r3, [pc, #20]	; 1002f34 <RarpHandler+0x3c>
 1002f1c:	e3a02003 	mov	r2, #3
 1002f20:	e5832000 	str	r2, [r3]
 1002f24:	e49df004 	pop	{pc}		; (ldr pc, [sp], #4)
 1002f28:	e49de004 	pop	{lr}		; (ldr lr, [sp], #4)
 1002f2c:	eafffbdf 	b	1001eb0 <TftpStart>
 1002f30:	01011584 	smlabbeq	r1, r4, r5, r1
 1002f34:	01015208 	tsteq	r1, r8, lsl #4

01002f38 <RarpTimeout>:
 1002f38:	e59f3030 	ldr	r3, [pc, #48]	; 1002f70 <RarpTimeout+0x38>
 1002f3c:	e52de004 	push	{lr}		; (str lr, [sp, #-4]!)
 1002f40:	e5933000 	ldr	r3, [r3]
 1002f44:	e3530004 	cmp	r3, #4
 1002f48:	da000003 	ble	1002f5c <RarpTimeout+0x24>
 1002f4c:	e59f0020 	ldr	r0, [pc, #32]	; 1002f74 <RarpTimeout+0x3c>
 1002f50:	eb001783 	bl	1008d64 <puts>
 1002f54:	e49de004 	pop	{lr}		; (ldr lr, [sp], #4)
 1002f58:	eafffa1a 	b	10017c8 <NetStartAgain>
 1002f5c:	e59f0014 	ldr	r0, [pc, #20]	; 1002f78 <RarpTimeout+0x40>
 1002f60:	e59f1014 	ldr	r1, [pc, #20]	; 1002f7c <RarpTimeout+0x44>
 1002f64:	ebfff9bb 	bl	1001658 <NetSetTimeout>
 1002f68:	e49de004 	pop	{lr}		; (ldr lr, [sp], #4)
 1002f6c:	eaffffa2 	b	1002dfc <RarpRequest>
 1002f70:	010178a4 	smlatbeq	r1, r4, r8, r7
 1002f74:	0101140c 	tsteq	r1, ip, lsl #8
 1002f78:	00001388 	andeq	r1, r0, r8, lsl #7
 1002f7c:	01002f38 	tsteq	r0, r8, lsr pc

01002f80 <eth_initialize>:
 1002f80:	e3a00000 	mov	r0, #0
 1002f84:	e12fff1e 	bx	lr

01002f88 <__flash_write8>:
 1002f88:	e20000ff 	and	r0, r0, #255	; 0xff
 1002f8c:	e5c10000 	strb	r0, [r1]
 1002f90:	e12fff1e 	bx	lr

01002f94 <__flash_write16>:
 1002f94:	e1a00800 	lsl	r0, r0, #16
 1002f98:	e1a00820 	lsr	r0, r0, #16
 1002f9c:	e1c100b0 	strh	r0, [r1]
 1002fa0:	e12fff1e 	bx	lr

01002fa4 <__flash_write32>:
 1002fa4:	e5810000 	str	r0, [r1]
 1002fa8:	e12fff1e 	bx	lr

01002fac <__flash_write64>:
 1002fac:	e8820003 	stm	r2, {r0, r1}
 1002fb0:	e12fff1e 	bx	lr

01002fb4 <flash_get_info>:
 1002fb4:	e59f3030 	ldr	r3, [pc, #48]	; 1002fec <flash_get_info+0x38>
 1002fb8:	e5931000 	ldr	r1, [r3]
 1002fbc:	e3510000 	cmp	r1, #0
 1002fc0:	0a000007 	beq	1002fe4 <flash_get_info+0x30>
 1002fc4:	e593200c 	ldr	r2, [r3, #12]
 1002fc8:	e1520000 	cmp	r2, r0
 1002fcc:	8a000004 	bhi	1002fe4 <flash_get_info+0x30>
 1002fd0:	e0812002 	add	r2, r1, r2
 1002fd4:	e2422001 	sub	r2, r2, #1
 1002fd8:	e1500002 	cmp	r0, r2
 1002fdc:	91a00003 	movls	r0, r3
 1002fe0:	912fff1e 	bxls	lr
 1002fe4:	e3a00000 	mov	r0, #0
 1002fe8:	e12fff1e 	bx	lr
 1002fec:	010178a8 	smlatbeq	r1, r8, r8, r7

01002ff0 <flash_sector_size>:
 1002ff0:	e1d030b4 	ldrh	r3, [r0, #4]
 1002ff4:	e2432001 	sub	r2, r3, #1
 1002ff8:	e1510002 	cmp	r1, r2
 1002ffc:	0a000005 	beq	1003018 <flash_sector_size+0x28>
 1003000:	e2813003 	add	r3, r1, #3
 1003004:	e2811004 	add	r1, r1, #4
 1003008:	e7903103 	ldr	r3, [r0, r3, lsl #2]
 100300c:	e7900101 	ldr	r0, [r0, r1, lsl #2]
 1003010:	e0630000 	rsb	r0, r3, r0
 1003014:	e12fff1e 	bx	lr
 1003018:	e5901000 	ldr	r1, [r0]
 100301c:	e590200c 	ldr	r2, [r0, #12]
 1003020:	e2833002 	add	r3, r3, #2
 1003024:	e7903103 	ldr	r3, [r0, r3, lsl #2]
 1003028:	e0810002 	add	r0, r1, r2
 100302c:	e0630000 	rsb	r0, r3, r0
 1003030:	e12fff1e 	bx	lr

01003034 <flash_map>:
 1003034:	e2811003 	add	r1, r1, #3
 1003038:	e7903101 	ldr	r3, [r0, r1, lsl #2]
 100303c:	e5d00520 	ldrb	r0, [r0, #1312]	; 0x520
 1003040:	e0203092 	mla	r0, r2, r0, r3
 1003044:	e12fff1e 	bx	lr

01003048 <flash_make_cmd>:
 1003048:	e92d44f1 	push	{r0, r4, r5, r6, r7, sl, lr}
 100304c:	e1a04000 	mov	r4, r0
 1003050:	e58d1000 	str	r1, [sp]
 1003054:	e1a0a002 	mov	sl, r2
 1003058:	e5d06520 	ldrb	r6, [r0, #1312]	; 0x520
 100305c:	e3a05000 	mov	r5, #0
 1003060:	ea000008 	b	1003088 <flash_make_cmd+0x40>
 1003064:	e5d47520 	ldrb	r7, [r4, #1312]	; 0x520
 1003068:	e5d41521 	ldrb	r1, [r4, #1313]	; 0x521
 100306c:	e0637007 	rsb	r7, r3, r7
 1003070:	e1a00007 	mov	r0, r7
 1003074:	eb0034b9 	bl	1010360 <__modsi3>
 1003078:	e3500003 	cmp	r0, #3
 100307c:	e7dd3000 	ldrb	r3, [sp, r0]
 1003080:	83a03000 	movhi	r3, #0
 1003084:	e7ca3007 	strb	r3, [sl, r7]
 1003088:	e1550006 	cmp	r5, r6
 100308c:	e0653006 	rsb	r3, r5, r6
 1003090:	e2855001 	add	r5, r5, #1
 1003094:	1afffff2 	bne	1003064 <flash_make_cmd+0x1c>
 1003098:	e8bd84f8 	pop	{r3, r4, r5, r6, r7, sl, pc}

0100309c <flash_read_uchar>:
 100309c:	e1a02001 	mov	r2, r1
 10030a0:	e52de004 	push	{lr}		; (str lr, [sp, #-4]!)
 10030a4:	e3a01000 	mov	r1, #0
 10030a8:	ebffffe1 	bl	1003034 <flash_map>
 10030ac:	e5d00000 	ldrb	r0, [r0]
 10030b0:	e49df004 	pop	{pc}		; (ldr pc, [sp], #4)

010030b4 <flash_write_cmd>:
 10030b4:	e92d4073 	push	{r0, r1, r4, r5, r6, lr}
 10030b8:	e1a06003 	mov	r6, r3
 10030bc:	e1a05000 	mov	r5, r0
 10030c0:	ebffffdb 	bl	1003034 <flash_map>
 10030c4:	e1a01006 	mov	r1, r6
 10030c8:	e1a0200d 	mov	r2, sp
 10030cc:	e1a04000 	mov	r4, r0
 10030d0:	e1a00005 	mov	r0, r5
 10030d4:	ebffffdb 	bl	1003048 <flash_make_cmd>
 10030d8:	e5d53520 	ldrb	r3, [r5, #1312]	; 0x520
 10030dc:	e2433001 	sub	r3, r3, #1
 10030e0:	e3530007 	cmp	r3, #7
 10030e4:	979ff103 	ldrls	pc, [pc, r3, lsl #2]
 10030e8:	ea000016 	b	1003148 <flash_write_cmd+0x94>
 10030ec:	0100310c 	tsteq	r0, ip, lsl #2
 10030f0:	0100311c 	tsteq	r0, ip, lsl r1
 10030f4:	01003148 	tsteq	r0, r8, asr #2
 10030f8:	0100312c 	tsteq	r0, ip, lsr #2
 10030fc:	01003148 	tsteq	r0, r8, asr #2
 1003100:	01003148 	tsteq	r0, r8, asr #2
 1003104:	01003148 	tsteq	r0, r8, asr #2
 1003108:	0100313c 	tsteq	r0, ip, lsr r1
 100310c:	e1a01004 	mov	r1, r4
 1003110:	e5dd0000 	ldrb	r0, [sp]
 1003114:	ebffff9b 	bl	1002f88 <__flash_write8>
 1003118:	ea00000a 	b	1003148 <flash_write_cmd+0x94>
 100311c:	e1a01004 	mov	r1, r4
 1003120:	e1dd00b0 	ldrh	r0, [sp]
 1003124:	ebffff9a 	bl	1002f94 <__flash_write16>
 1003128:	ea000006 	b	1003148 <flash_write_cmd+0x94>
 100312c:	e1a01004 	mov	r1, r4
 1003130:	e59d0000 	ldr	r0, [sp]
 1003134:	ebffff9a 	bl	1002fa4 <__flash_write32>
 1003138:	ea000002 	b	1003148 <flash_write_cmd+0x94>
 100313c:	e1a02004 	mov	r2, r4
 1003140:	e89d0003 	ldm	sp, {r0, r1}
 1003144:	ebffff98 	bl	1002fac <__flash_write64>
 1003148:	e8bd807c 	pop	{r2, r3, r4, r5, r6, pc}

0100314c <flash_unlock_seq>:
 100314c:	e92d4030 	push	{r4, r5, lr}
 1003150:	e3a030aa 	mov	r3, #170	; 0xaa
 1003154:	e5902544 	ldr	r2, [r0, #1348]	; 0x544
 1003158:	e1a04000 	mov	r4, r0
 100315c:	e1a05001 	mov	r5, r1
 1003160:	ebffffd3 	bl	10030b4 <flash_write_cmd>
 1003164:	e1a00004 	mov	r0, r4
 1003168:	e1a01005 	mov	r1, r5
 100316c:	e3a03055 	mov	r3, #85	; 0x55
 1003170:	e5942548 	ldr	r2, [r4, #1352]	; 0x548
 1003174:	e8bd4030 	pop	{r4, r5, lr}
 1003178:	eaffffcd 	b	10030b4 <flash_write_cmd>

0100317c <flash_isequal>:
 100317c:	e92d4073 	push	{r0, r1, r4, r5, r6, lr}
 1003180:	e20360ff 	and	r6, r3, #255	; 0xff
 1003184:	e1a05000 	mov	r5, r0
 1003188:	ebffffa9 	bl	1003034 <flash_map>
 100318c:	e1a01006 	mov	r1, r6
 1003190:	e1a0200d 	mov	r2, sp
 1003194:	e1a04000 	mov	r4, r0
 1003198:	e1a00005 	mov	r0, r5
 100319c:	ebffffa9 	bl	1003048 <flash_make_cmd>
 10031a0:	e5d53520 	ldrb	r3, [r5, #1312]	; 0x520
 10031a4:	e2433001 	sub	r3, r3, #1
 10031a8:	e3530007 	cmp	r3, #7
 10031ac:	979ff103 	ldrls	pc, [pc, r3, lsl #2]
 10031b0:	ea000007 	b	10031d4 <flash_isequal+0x58>
 10031b4:	010031dc 	ldrdeq	r3, [r0, -ip]
 10031b8:	010031e8 	smlatteq	r0, r8, r1, r3
 10031bc:	010031d4 	ldrdeq	r3, [r0, -r4]
 10031c0:	01003200 	tsteq	r0, r0, lsl #4
 10031c4:	010031d4 	ldrdeq	r3, [r0, -r4]
 10031c8:	010031d4 	ldrdeq	r3, [r0, -r4]
 10031cc:	010031d4 	ldrdeq	r3, [r0, -r4]
 10031d0:	0100320c 	tsteq	r0, ip, lsl #4
 10031d4:	e3a00000 	mov	r0, #0
 10031d8:	ea000014 	b	1003230 <flash_isequal+0xb4>
 10031dc:	e5d43000 	ldrb	r3, [r4]
 10031e0:	e5dd0000 	ldrb	r0, [sp]
 10031e4:	ea000001 	b	10031f0 <flash_isequal+0x74>
 10031e8:	e1d430b0 	ldrh	r3, [r4]
 10031ec:	e1dd00b0 	ldrh	r0, [sp]
 10031f0:	e1500003 	cmp	r0, r3
 10031f4:	13a00000 	movne	r0, #0
 10031f8:	03a00001 	moveq	r0, #1
 10031fc:	ea00000b 	b	1003230 <flash_isequal+0xb4>
 1003200:	e5940000 	ldr	r0, [r4]
 1003204:	e59d3000 	ldr	r3, [sp]
 1003208:	eafffff8 	b	10031f0 <flash_isequal+0x74>
 100320c:	e8940018 	ldm	r4, {r3, r4}
 1003210:	e59d2000 	ldr	r2, [sp]
 1003214:	e3a00000 	mov	r0, #0
 1003218:	e1520003 	cmp	r2, r3
 100321c:	1a000003 	bne	1003230 <flash_isequal+0xb4>
 1003220:	e59d0004 	ldr	r0, [sp, #4]
 1003224:	e1500004 	cmp	r0, r4
 1003228:	13a00000 	movne	r0, #0
 100322c:	03a00001 	moveq	r0, #1
 1003230:	e8bd807c 	pop	{r2, r3, r4, r5, r6, pc}

01003234 <flash_isset>:
 1003234:	e92d4073 	push	{r0, r1, r4, r5, r6, lr}
 1003238:	e20360ff 	and	r6, r3, #255	; 0xff
 100323c:	e1a05000 	mov	r5, r0
 1003240:	ebffff7b 	bl	1003034 <flash_map>
 1003244:	e1a01006 	mov	r1, r6
 1003248:	e1a0200d 	mov	r2, sp
 100324c:	e1a04000 	mov	r4, r0
 1003250:	e1a00005 	mov	r0, r5
 1003254:	ebffff7b 	bl	1003048 <flash_make_cmd>
 1003258:	e5d53520 	ldrb	r3, [r5, #1312]	; 0x520
 100325c:	e2433001 	sub	r3, r3, #1
 1003260:	e3530007 	cmp	r3, #7
 1003264:	979ff103 	ldrls	pc, [pc, r3, lsl #2]
 1003268:	ea000007 	b	100328c <flash_isset+0x58>
 100326c:	01003294 	tsteq	r0, r4, lsl r2
 1003270:	010032a0 	smlatbeq	r0, r0, r2, r3
 1003274:	0100328c 	smlabbeq	r0, ip, r2, r3
 1003278:	010032bc 	strheq	r3, [r0, -ip]
 100327c:	0100328c 	smlabbeq	r0, ip, r2, r3
 1003280:	0100328c 	smlabbeq	r0, ip, r2, r3
 1003284:	0100328c 	smlabbeq	r0, ip, r2, r3
 1003288:	010032c8 	smlabteq	r0, r8, r2, r3
 100328c:	e3a00000 	mov	r0, #0
 1003290:	ea000016 	b	10032f0 <flash_isset+0xbc>
 1003294:	e5d40000 	ldrb	r0, [r4]
 1003298:	e5dd3000 	ldrb	r3, [sp]
 100329c:	ea000001 	b	10032a8 <flash_isset+0x74>
 10032a0:	e1d400b0 	ldrh	r0, [r4]
 10032a4:	e1dd30b0 	ldrh	r3, [sp]
 10032a8:	e0000003 	and	r0, r0, r3
 10032ac:	e1500003 	cmp	r0, r3
 10032b0:	13a00000 	movne	r0, #0
 10032b4:	03a00001 	moveq	r0, #1
 10032b8:	ea00000c 	b	10032f0 <flash_isset+0xbc>
 10032bc:	e5940000 	ldr	r0, [r4]
 10032c0:	e59d3000 	ldr	r3, [sp]
 10032c4:	eafffff7 	b	10032a8 <flash_isset+0x74>
 10032c8:	e8940006 	ldm	r4, {r1, r2}
 10032cc:	e89d0018 	ldm	sp, {r3, r4}
 10032d0:	e3a00000 	mov	r0, #0
 10032d4:	e0011003 	and	r1, r1, r3
 10032d8:	e1510003 	cmp	r1, r3
 10032dc:	e0022004 	and	r2, r2, r4
 10032e0:	1a000002 	bne	10032f0 <flash_isset+0xbc>
 10032e4:	e1520004 	cmp	r2, r4
 10032e8:	13a00000 	movne	r0, #0
 10032ec:	03a00001 	moveq	r0, #1
 10032f0:	e8bd807c 	pop	{r2, r3, r4, r5, r6, pc}

010032f4 <flash_add_byte>:
 10032f4:	e92d4810 	push	{r4, fp, lr}
 10032f8:	e5d03520 	ldrb	r3, [r0, #1312]	; 0x520
 10032fc:	e20220ff 	and	r2, r2, #255	; 0xff
 1003300:	e2433001 	sub	r3, r3, #1
 1003304:	e3530007 	cmp	r3, #7
 1003308:	979ff103 	ldrls	pc, [pc, r3, lsl #2]
 100330c:	ea00001f 	b	1003390 <flash_add_byte+0x9c>
 1003310:	01003330 	tsteq	r0, r0, lsr r3
 1003314:	01003338 	tsteq	r0, r8, lsr r3
 1003318:	01003390 	tsteq	r0, r0, lsl r3
 100331c:	0100334c 	tsteq	r0, ip, asr #6
 1003320:	01003390 	tsteq	r0, r0, lsl r3
 1003324:	01003390 	tsteq	r0, r0, lsl r3
 1003328:	01003390 	tsteq	r0, r0, lsl r3
 100332c:	01003360 	tsteq	r0, r0, ror #6
 1003330:	e5c12000 	strb	r2, [r1]
 1003334:	e8bd8810 	pop	{r4, fp, pc}
 1003338:	e1d130b0 	ldrh	r3, [r1]
 100333c:	e1a03423 	lsr	r3, r3, #8
 1003340:	e1832402 	orr	r2, r3, r2, lsl #8
 1003344:	e1c120b0 	strh	r2, [r1]
 1003348:	e8bd8810 	pop	{r4, fp, pc}
 100334c:	e5913000 	ldr	r3, [r1]
 1003350:	e1a03423 	lsr	r3, r3, #8
 1003354:	e1832c02 	orr	r2, r3, r2, lsl #24
 1003358:	e5812000 	str	r2, [r1]
 100335c:	e8bd8810 	pop	{r4, fp, pc}
 1003360:	e591c000 	ldr	ip, [r1]
 1003364:	e5910004 	ldr	r0, [r1, #4]
 1003368:	e1a0342c 	lsr	r3, ip, #8
 100336c:	e1a02c02 	lsl	r2, r2, #24
 1003370:	e1a0c002 	mov	ip, r2
 1003374:	e1833c00 	orr	r3, r3, r0, lsl #24
 1003378:	e3a02000 	mov	r2, #0
 100337c:	e1a04420 	lsr	r4, r0, #8
 1003380:	e1833002 	orr	r3, r3, r2
 1003384:	e184400c 	orr	r4, r4, ip
 1003388:	e1a0b002 	mov	fp, r2
 100338c:	e8810018 	stm	r1, {r3, r4}
 1003390:	e8bd8810 	pop	{r4, fp, pc}

01003394 <find_sector>:
 1003394:	e59f3064 	ldr	r3, [pc, #100]	; 1003400 <find_sector+0x6c>
 1003398:	e5933550 	ldr	r3, [r3, #1360]	; 0x550
 100339c:	e2832003 	add	r2, r3, #3
 10033a0:	e0802102 	add	r2, r0, r2, lsl #2
 10033a4:	ea000000 	b	10033ac <find_sector+0x18>
 10033a8:	e2833001 	add	r3, r3, #1
 10033ac:	e592c000 	ldr	ip, [r2]
 10033b0:	e2822004 	add	r2, r2, #4
 10033b4:	e15c0001 	cmp	ip, r1
 10033b8:	3a000002 	bcc	10033c8 <find_sector+0x34>
 10033bc:	e2832003 	add	r2, r3, #3
 10033c0:	e0800102 	add	r0, r0, r2, lsl #2
 10033c4:	ea000005 	b	10033e0 <find_sector+0x4c>
 10033c8:	e1d0c0b4 	ldrh	ip, [r0, #4]
 10033cc:	e24cc001 	sub	ip, ip, #1
 10033d0:	e153000c 	cmp	r3, ip
 10033d4:	3afffff3 	bcc	10033a8 <find_sector+0x14>
 10033d8:	eafffff7 	b	10033bc <find_sector+0x28>
 10033dc:	e2433001 	sub	r3, r3, #1
 10033e0:	e4102004 	ldr	r2, [r0], #-4
 10033e4:	e3530000 	cmp	r3, #0
 10033e8:	11520001 	cmpne	r2, r1
 10033ec:	8afffffa 	bhi	10033dc <find_sector+0x48>
 10033f0:	e59f2008 	ldr	r2, [pc, #8]	; 1003400 <find_sector+0x6c>
 10033f4:	e1a00003 	mov	r0, r3
 10033f8:	e5823550 	str	r3, [r2, #1360]	; 0x550
 10033fc:	e12fff1e 	bx	lr
 1003400:	010178a8 	smlatbeq	r1, r8, r8, r7

01003404 <cfi_reverse_geometry>:
 1003404:	e5d0101c 	ldrb	r1, [r0, #28]
 1003408:	e92d4ef1 	push	{r0, r4, r5, r6, r7, r9, sl, fp, lr}
 100340c:	e3a0c000 	mov	ip, #0
 1003410:	e2411001 	sub	r1, r1, #1
 1003414:	ea00001d 	b	1003490 <cfi_reverse_geometry+0x8c>
 1003418:	e5d27002 	ldrb	r7, [r2, #2]
 100341c:	e5d24001 	ldrb	r4, [r2, #1]
 1003420:	e5d36002 	ldrb	r6, [r3, #2]
 1003424:	e5d35001 	ldrb	r5, [r3, #1]
 1003428:	e5d29003 	ldrb	r9, [r2, #3]
 100342c:	e5d3a003 	ldrb	sl, [r3, #3]
 1003430:	e1844407 	orr	r4, r4, r7, lsl #8
 1003434:	e1855406 	orr	r5, r5, r6, lsl #8
 1003438:	e5d27004 	ldrb	r7, [r2, #4]
 100343c:	e5d36004 	ldrb	r6, [r3, #4]
 1003440:	e1844809 	orr	r4, r4, r9, lsl #16
 1003444:	e185580a 	orr	r5, r5, sl, lsl #16
 1003448:	e1844c07 	orr	r4, r4, r7, lsl #24
 100344c:	e1855c06 	orr	r5, r5, r6, lsl #24
 1003450:	e1a09c25 	lsr	r9, r5, #24
 1003454:	e1a06424 	lsr	r6, r4, #8
 1003458:	e1a0bc24 	lsr	fp, r4, #24
 100345c:	e1a0a425 	lsr	sl, r5, #8
 1003460:	e1a07825 	lsr	r7, r5, #16
 1003464:	e58d6000 	str	r6, [sp]
 1003468:	e5c29004 	strb	r9, [r2, #4]
 100346c:	e5c2a002 	strb	sl, [r2, #2]
 1003470:	e5c27003 	strb	r7, [r2, #3]
 1003474:	e5c25001 	strb	r5, [r2, #1]
 1003478:	e5c3b004 	strb	fp, [r3, #4]
 100347c:	e59d2000 	ldr	r2, [sp]
 1003480:	e1a06824 	lsr	r6, r4, #16
 1003484:	e5c32002 	strb	r2, [r3, #2]
 1003488:	e5c36003 	strb	r6, [r3, #3]
 100348c:	e5c34001 	strb	r4, [r3, #1]
 1003490:	e28c2007 	add	r2, ip, #7
 1003494:	e2813007 	add	r3, r1, #7
 1003498:	e15c0001 	cmp	ip, r1
 100349c:	e0802102 	add	r2, r0, r2, lsl #2
 10034a0:	e0803103 	add	r3, r0, r3, lsl #2
 10034a4:	e28cc001 	add	ip, ip, #1
 10034a8:	e2411001 	sub	r1, r1, #1
 10034ac:	3affffd9 	bcc	1003418 <cfi_reverse_geometry+0x14>
 10034b0:	e8bd8ef8 	pop	{r3, r4, r5, r6, r7, r9, sl, fp, pc}

010034b4 <flash_set_verbose>:
 10034b4:	e59f3004 	ldr	r3, [pc, #4]	; 10034c0 <flash_set_verbose+0xc>
 10034b8:	e5830000 	str	r0, [r3]
 10034bc:	e12fff1e 	bx	lr
 10034c0:	010143f0 	strdeq	r4, [r1, -r0]

010034c4 <flash_read_factory_serial>:
 10034c4:	e92d44f0 	push	{r4, r5, r6, r7, sl, lr}
 10034c8:	e1a06001 	mov	r6, r1
 10034cc:	e1a07002 	mov	r7, r2
 10034d0:	e3a01000 	mov	r1, #0
 10034d4:	e3a02081 	mov	r2, #129	; 0x81
 10034d8:	e1a04000 	mov	r4, r0
 10034dc:	e1a0a003 	mov	sl, r3
 10034e0:	ebfffed3 	bl	1003034 <flash_map>
 10034e4:	e3a01000 	mov	r1, #0
 10034e8:	e1a02001 	mov	r2, r1
 10034ec:	e3a03090 	mov	r3, #144	; 0x90
 10034f0:	e1a05000 	mov	r5, r0
 10034f4:	e1a00004 	mov	r0, r4
 10034f8:	ebfffeed 	bl	10030b4 <flash_write_cmd>
 10034fc:	e0851007 	add	r1, r5, r7
 1003500:	e1a0200a 	mov	r2, sl
 1003504:	e1a00006 	mov	r0, r6
 1003508:	eb002533 	bl	100c9dc <memcpy>
 100350c:	e3a01000 	mov	r1, #0
 1003510:	e59f3010 	ldr	r3, [pc, #16]	; 1003528 <flash_read_factory_serial+0x64>
 1003514:	e1a00004 	mov	r0, r4
 1003518:	e1a02001 	mov	r2, r1
 100351c:	e19430b3 	ldrh	r3, [r4, r3]
 1003520:	e8bd44f0 	pop	{r4, r5, r6, r7, sl, lr}
 1003524:	eafffee2 	b	10030b4 <flash_write_cmd>
 1003528:	00000532 	andeq	r0, r0, r2, lsr r5

0100352c <flash_read_user_serial>:
 100352c:	e92d44f0 	push	{r4, r5, r6, r7, sl, lr}
 1003530:	e1a06001 	mov	r6, r1
 1003534:	e1a07002 	mov	r7, r2
 1003538:	e3a01000 	mov	r1, #0
 100353c:	e3a02085 	mov	r2, #133	; 0x85
 1003540:	e1a04000 	mov	r4, r0
 1003544:	e1a0a003 	mov	sl, r3
 1003548:	ebfffeb9 	bl	1003034 <flash_map>
 100354c:	e3a01000 	mov	r1, #0
 1003550:	e1a02001 	mov	r2, r1
 1003554:	e3a03090 	mov	r3, #144	; 0x90
 1003558:	e1a05000 	mov	r5, r0
 100355c:	e1a00004 	mov	r0, r4
 1003560:	ebfffed3 	bl	10030b4 <flash_write_cmd>
 1003564:	e0851007 	add	r1, r5, r7
 1003568:	e1a0200a 	mov	r2, sl
 100356c:	e1a00006 	mov	r0, r6
 1003570:	eb002519 	bl	100c9dc <memcpy>
 1003574:	e3a01000 	mov	r1, #0
 1003578:	e59f3010 	ldr	r3, [pc, #16]	; 1003590 <flash_read_user_serial+0x64>
 100357c:	e1a00004 	mov	r0, r4
 1003580:	e1a02001 	mov	r2, r1
 1003584:	e19430b3 	ldrh	r3, [r4, r3]
 1003588:	e8bd44f0 	pop	{r4, r5, r6, r7, sl, lr}
 100358c:	eafffec8 	b	10030b4 <flash_write_cmd>
 1003590:	00000532 	andeq	r0, r0, r2, lsr r5

01003594 <flash_print_info>:
 1003594:	e92d40f0 	push	{r4, r5, r6, r7, lr}
 1003598:	e5903008 	ldr	r3, [r0, #8]
 100359c:	e1a04000 	mov	r4, r0
 10035a0:	e3530401 	cmp	r3, #16777216	; 0x1000000
 10035a4:	0a000002 	beq	10035b4 <flash_print_info+0x20>
 10035a8:	e59f01c8 	ldr	r0, [pc, #456]	; 1003778 <flash_print_info+0x1e4>
 10035ac:	e8bd40f0 	pop	{r4, r5, r6, r7, lr}
 10035b0:	ea0015eb 	b	1008d64 <puts>
 10035b4:	e5d02520 	ldrb	r2, [r0, #1312]	; 0x520
 10035b8:	e5d03521 	ldrb	r3, [r0, #1313]	; 0x521
 10035bc:	e1a02182 	lsl	r2, r2, #3
 10035c0:	e59f01b4 	ldr	r0, [pc, #436]	; 100377c <flash_print_info+0x1e8>
 10035c4:	e1a03183 	lsl	r3, r3, #3
 10035c8:	e594154c 	ldr	r1, [r4, #1356]	; 0x54c
 10035cc:	eb0015f6 	bl	1008dac <printf>
 10035d0:	e5941000 	ldr	r1, [r4]
 10035d4:	e1d420b4 	ldrh	r2, [r4, #4]
 10035d8:	e3510601 	cmp	r1, #1048576	; 0x100000
 10035dc:	31a01521 	lsrcc	r1, r1, #10
 10035e0:	359f0198 	ldrcc	r0, [pc, #408]	; 1003780 <flash_print_info+0x1ec>
 10035e4:	21a01a21 	lsrcs	r1, r1, #20
 10035e8:	259f0194 	ldrcs	r0, [pc, #404]	; 1003784 <flash_print_info+0x1f0>
 10035ec:	eb0015ee 	bl	1008dac <printf>
 10035f0:	e59f0190 	ldr	r0, [pc, #400]	; 1003788 <flash_print_info+0x1f4>
 10035f4:	eb0015ec 	bl	1008dac <printf>
 10035f8:	e3a03e53 	mov	r3, #1328	; 0x530
 10035fc:	e19410b3 	ldrh	r1, [r4, r3]
 1003600:	e3510003 	cmp	r1, #3
 1003604:	0a00000b 	beq	1003638 <flash_print_info+0xa4>
 1003608:	8a000004 	bhi	1003620 <flash_print_info+0x8c>
 100360c:	e3510001 	cmp	r1, #1
 1003610:	0a00000b 	beq	1003644 <flash_print_info+0xb0>
 1003614:	e3510002 	cmp	r1, #2
 1003618:	1a00000f 	bne	100365c <flash_print_info+0xc8>
 100361c:	ea00000a 	b	100364c <flash_print_info+0xb8>
 1003620:	e3510004 	cmp	r1, #4
 1003624:	0a00000a 	beq	1003654 <flash_print_info+0xc0>
 1003628:	e3510c02 	cmp	r1, #512	; 0x200
 100362c:	059f0158 	ldreq	r0, [pc, #344]	; 100378c <flash_print_info+0x1f8>
 1003630:	1a000009 	bne	100365c <flash_print_info+0xc8>
 1003634:	ea000000 	b	100363c <flash_print_info+0xa8>
 1003638:	e59f0150 	ldr	r0, [pc, #336]	; 1003790 <flash_print_info+0x1fc>
 100363c:	eb0015da 	bl	1008dac <printf>
 1003640:	ea000007 	b	1003664 <flash_print_info+0xd0>
 1003644:	e59f0148 	ldr	r0, [pc, #328]	; 1003794 <flash_print_info+0x200>
 1003648:	eafffffb 	b	100363c <flash_print_info+0xa8>
 100364c:	e59f0144 	ldr	r0, [pc, #324]	; 1003798 <flash_print_info+0x204>
 1003650:	eafffff9 	b	100363c <flash_print_info+0xa8>
 1003654:	e59f0140 	ldr	r0, [pc, #320]	; 100379c <flash_print_info+0x208>
 1003658:	eafffff7 	b	100363c <flash_print_info+0xa8>
 100365c:	e59f013c 	ldr	r0, [pc, #316]	; 10037a0 <flash_print_info+0x20c>
 1003660:	eb0015d1 	bl	1008dac <printf>
 1003664:	e59f5138 	ldr	r5, [pc, #312]	; 10037a4 <flash_print_info+0x210>
 1003668:	e59f0138 	ldr	r0, [pc, #312]	; 10037a8 <flash_print_info+0x214>
 100366c:	e5d41538 	ldrb	r1, [r4, #1336]	; 0x538
 1003670:	e19420b5 	ldrh	r2, [r4, r5]
 1003674:	eb0015cc 	bl	1008dac <printf>
 1003678:	e19430b5 	ldrh	r3, [r4, r5]
 100367c:	e353007e 	cmp	r3, #126	; 0x7e
 1003680:	1a000003 	bne	1003694 <flash_print_info+0x100>
 1003684:	e59f3120 	ldr	r3, [pc, #288]	; 10037ac <flash_print_info+0x218>
 1003688:	e59f0120 	ldr	r0, [pc, #288]	; 10037b0 <flash_print_info+0x21c>
 100368c:	e19410b3 	ldrh	r1, [r4, r3]
 1003690:	eb0015c5 	bl	1008dac <printf>
 1003694:	e5942528 	ldr	r2, [r4, #1320]	; 0x528
 1003698:	e59f0114 	ldr	r0, [pc, #276]	; 10037b4 <flash_print_info+0x220>
 100369c:	e5941524 	ldr	r1, [r4, #1316]	; 0x524
 10036a0:	eb0015c1 	bl	1008dac <printf>
 10036a4:	e59f310c 	ldr	r3, [pc, #268]	; 10037b8 <flash_print_info+0x224>
 10036a8:	e19420b3 	ldrh	r2, [r4, r3]
 10036ac:	e3520001 	cmp	r2, #1
 10036b0:	9a000002 	bls	10036c0 <flash_print_info+0x12c>
 10036b4:	e59f0100 	ldr	r0, [pc, #256]	; 10037bc <flash_print_info+0x228>
 10036b8:	e594152c 	ldr	r1, [r4, #1324]	; 0x52c
 10036bc:	eb0015ba 	bl	1008dac <printf>
 10036c0:	e59f00f8 	ldr	r0, [pc, #248]	; 10037c0 <flash_print_info+0x22c>
 10036c4:	eb0015a6 	bl	1008d64 <puts>
 10036c8:	e1a06004 	mov	r6, r4
 10036cc:	e1a07004 	mov	r7, r4
 10036d0:	e3a05000 	mov	r5, #0
 10036d4:	ea000021 	b	1003760 <flash_print_info+0x1cc>
 10036d8:	e1a00005 	mov	r0, r5
 10036dc:	e3a01005 	mov	r1, #5
 10036e0:	eb00331e 	bl	1010360 <__modsi3>
 10036e4:	e3500000 	cmp	r0, #0
 10036e8:	1a000001 	bne	10036f4 <flash_print_info+0x160>
 10036ec:	e59f00d0 	ldr	r0, [pc, #208]	; 10037c4 <flash_print_info+0x230>
 10036f0:	eb0015ad 	bl	1008dac <printf>
 10036f4:	e1a01005 	mov	r1, r5
 10036f8:	e1a00004 	mov	r0, r4
 10036fc:	ebfffe3b 	bl	1002ff0 <flash_sector_size>
 1003700:	e597100c 	ldr	r1, [r7, #12]
 1003704:	e3a02000 	mov	r2, #0
 1003708:	e1a03001 	mov	r3, r1
 100370c:	e1a00140 	asr	r0, r0, #2
 1003710:	ea000004 	b	1003728 <flash_print_info+0x194>
 1003714:	e593c000 	ldr	ip, [r3]
 1003718:	e2833004 	add	r3, r3, #4
 100371c:	e37c0001 	cmn	ip, #1
 1003720:	13a02020 	movne	r2, #32
 1003724:	1a000003 	bne	1003738 <flash_print_info+0x1a4>
 1003728:	e1520000 	cmp	r2, r0
 100372c:	e2822001 	add	r2, r2, #1
 1003730:	bafffff7 	blt	1003714 <flash_print_info+0x180>
 1003734:	e3a02045 	mov	r2, #69	; 0x45
 1003738:	e5d6c41c 	ldrb	ip, [r6, #1052]	; 0x41c
 100373c:	e59f0044 	ldr	r0, [pc, #68]	; 1003788 <flash_print_info+0x1f4>
 1003740:	e35c0000 	cmp	ip, #0
 1003744:	e59f307c 	ldr	r3, [pc, #124]	; 10037c8 <flash_print_info+0x234>
 1003748:	01a03000 	moveq	r3, r0
 100374c:	e59f0078 	ldr	r0, [pc, #120]	; 10037cc <flash_print_info+0x238>
 1003750:	eb001595 	bl	1008dac <printf>
 1003754:	e2855001 	add	r5, r5, #1
 1003758:	e2866001 	add	r6, r6, #1
 100375c:	e2877004 	add	r7, r7, #4
 1003760:	e1d430b4 	ldrh	r3, [r4, #4]
 1003764:	e1550003 	cmp	r5, r3
 1003768:	baffffda 	blt	10036d8 <flash_print_info+0x144>
 100376c:	e3a0000a 	mov	r0, #10
 1003770:	e8bd40f0 	pop	{r4, r5, r6, r7, lr}
 1003774:	ea00160e 	b	1008fb4 <putc>
 1003778:	010115c9 	smlabteq	r1, r9, r5, r1
 100377c:	010115e8 	smlatteq	r1, r8, r5, r1
 1003780:	010115fb 	strdeq	r1, [r1, -fp]
 1003784:	01011619 	tsteq	r1, r9, lsl r6
 1003788:	01013bb3 	strheq	r3, [r1, -r3]
 100378c:	01011637 	tsteq	r1, r7, lsr r6
 1003790:	0101164a 	tsteq	r1, sl, asr #12
 1003794:	01011659 	tsteq	r1, r9, asr r6
 1003798:	01011668 	tsteq	r1, r8, ror #12
 100379c:	01011675 	tsteq	r1, r5, ror r6
 10037a0:	01011682 	smlabbeq	r1, r2, r6, r1
 10037a4:	0000053a 	andeq	r0, r0, sl, lsr r5
 10037a8:	0101168f 	smlabbeq	r1, pc, r6, r1
 10037ac:	0000053c 	andeq	r0, r0, ip, lsr r5
 10037b0:	010116c8 	smlabteq	r1, r8, r6, r1
 10037b4:	010116cd 	smlabteq	r1, sp, r6, r1
 10037b8:	00000522 	andeq	r0, r0, r2, lsr #10
 10037bc:	010116fe 	strdeq	r1, [r1, -lr]
 10037c0:	01011735 	tsteq	r1, r5, lsr r7
 10037c4:	0101437d 	tsteq	r1, sp, ror r3
 10037c8:	01011750 	tsteq	r1, r0, asr r7
 10037cc:	01011753 	tsteq	r1, r3, asr r7

010037d0 <flash_get_size>:
 10037d0:	e3a03e55 	mov	r3, #1360	; 0x550
 10037d4:	e0010193 	mul	r1, r3, r1
 10037d8:	e92d4ef0 	push	{r4, r5, r6, r7, r9, sl, fp, lr}
 10037dc:	e24dd048 	sub	sp, sp, #72	; 0x48
 10037e0:	e58d1008 	str	r1, [sp, #8]
 10037e4:	e1a07000 	mov	r7, r0
 10037e8:	e3a0202d 	mov	r2, #45	; 0x2d
 10037ec:	e28d0018 	add	r0, sp, #24
 10037f0:	e3a01000 	mov	r1, #0
 10037f4:	eb002466 	bl	100c994 <memset>
 10037f8:	e59d2008 	ldr	r2, [sp, #8]
 10037fc:	e59f3724 	ldr	r3, [pc, #1828]	; 1003f28 <flash_get_size+0x758>
 1003800:	e3a06000 	mov	r6, #0
 1003804:	e0834002 	add	r4, r3, r2
 1003808:	e59f371c 	ldr	r3, [pc, #1820]	; 1003f2c <flash_get_size+0x75c>
 100380c:	e584700c 	str	r7, [r4, #12]
 1003810:	e18460b3 	strh	r6, [r4, r3]
 1003814:	e2833002 	add	r3, r3, #2
 1003818:	e18460b3 	strh	r6, [r4, r3]
 100381c:	e243300a 	sub	r3, r3, #10
 1003820:	e18460b3 	strh	r6, [r4, r3]
 1003824:	e3a03001 	mov	r3, #1
 1003828:	e5c43520 	strb	r3, [r4, #1312]	; 0x520
 100382c:	ea00005d 	b	10039a8 <flash_get_size+0x1d8>
 1003830:	e3a03001 	mov	r3, #1
 1003834:	ea0001b5 	b	1003f10 <flash_get_size+0x740>
 1003838:	e3a01000 	mov	r1, #0
 100383c:	e1a02001 	mov	r2, r1
 1003840:	e3a030f0 	mov	r3, #240	; 0xf0
 1003844:	e1a00004 	mov	r0, r4
 1003848:	ebfffe19 	bl	10030b4 <flash_write_cmd>
 100384c:	e3a01000 	mov	r1, #0
 1003850:	e1a00004 	mov	r0, r4
 1003854:	e1a02001 	mov	r2, r1
 1003858:	e3a030ff 	mov	r3, #255	; 0xff
 100385c:	ebfffe14 	bl	10030b4 <flash_write_cmd>
 1003860:	e3a05000 	mov	r5, #0
 1003864:	e59f36c4 	ldr	r3, [pc, #1732]	; 1003f30 <flash_get_size+0x760>
 1003868:	e1a00004 	mov	r0, r4
 100386c:	e7936005 	ldr	r6, [r3, r5]
 1003870:	e3a01000 	mov	r1, #0
 1003874:	e1a02006 	mov	r2, r6
 1003878:	e3a03098 	mov	r3, #152	; 0x98
 100387c:	ebfffe0c 	bl	10030b4 <flash_write_cmd>
 1003880:	e1a00004 	mov	r0, r4
 1003884:	e3a01000 	mov	r1, #0
 1003888:	e3a02010 	mov	r2, #16
 100388c:	e3a03051 	mov	r3, #81	; 0x51
 1003890:	ebfffe39 	bl	100317c <flash_isequal>
 1003894:	e2855004 	add	r5, r5, #4
 1003898:	e3500000 	cmp	r0, #0
 100389c:	0a00003c 	beq	1003994 <flash_get_size+0x1c4>
 10038a0:	e3a01000 	mov	r1, #0
 10038a4:	e3a02011 	mov	r2, #17
 10038a8:	e3a03052 	mov	r3, #82	; 0x52
 10038ac:	e1a00004 	mov	r0, r4
 10038b0:	ebfffe31 	bl	100317c <flash_isequal>
 10038b4:	e3500000 	cmp	r0, #0
 10038b8:	0a000035 	beq	1003994 <flash_get_size+0x1c4>
 10038bc:	e1a00004 	mov	r0, r4
 10038c0:	e3a01000 	mov	r1, #0
 10038c4:	e3a02012 	mov	r2, #18
 10038c8:	e3a03059 	mov	r3, #89	; 0x59
 10038cc:	ebfffe2a 	bl	100317c <flash_isequal>
 10038d0:	e3500000 	cmp	r0, #0
 10038d4:	0a00002e 	beq	1003994 <flash_get_size+0x1c4>
 10038d8:	e3a05000 	mov	r5, #0
 10038dc:	e2851010 	add	r1, r5, #16
 10038e0:	e1a00004 	mov	r0, r4
 10038e4:	ebfffdec 	bl	100309c <flash_read_uchar>
 10038e8:	e28d3018 	add	r3, sp, #24
 10038ec:	e7c30005 	strb	r0, [r3, r5]
 10038f0:	e2855001 	add	r5, r5, #1
 10038f4:	e355002d 	cmp	r5, #45	; 0x2d
 10038f8:	1afffff7 	bne	10038dc <flash_get_size+0x10c>
 10038fc:	e59f1630 	ldr	r1, [pc, #1584]	; 1003f34 <flash_get_size+0x764>
 1003900:	e1dd33b0 	ldrh	r3, [sp, #48]	; 0x30
 1003904:	e5d42521 	ldrb	r2, [r4, #1313]	; 0x521
 1003908:	e18460b1 	strh	r6, [r4, r1]
 100390c:	e241100e 	sub	r1, r1, #14
 1003910:	e18430b1 	strh	r3, [r4, r1]
 1003914:	e2811021 	add	r1, r1, #33	; 0x21
 1003918:	e5841544 	str	r1, [r4, #1348]	; 0x544
 100391c:	e3520001 	cmp	r2, #1
 1003920:	e59f1610 	ldr	r1, [pc, #1552]	; 1003f38 <flash_get_size+0x768>
 1003924:	e5841548 	str	r1, [r4, #1352]	; 0x548
 1003928:	1a000001 	bne	1003934 <flash_get_size+0x164>
 100392c:	e3530002 	cmp	r3, #2
 1003930:	ea000002 	b	1003940 <flash_get_size+0x170>
 1003934:	e3520002 	cmp	r2, #2
 1003938:	1a000004 	bne	1003950 <flash_get_size+0x180>
 100393c:	e3530005 	cmp	r3, #5
 1003940:	059f35f4 	ldreq	r3, [pc, #1524]	; 1003f3c <flash_get_size+0x76c>
 1003944:	05843544 	streq	r3, [r4, #1348]	; 0x544
 1003948:	059f35f0 	ldreq	r3, [pc, #1520]	; 1003f40 <flash_get_size+0x770>
 100394c:	05843548 	streq	r3, [r4, #1352]	; 0x548
 1003950:	e5dd301b 	ldrb	r3, [sp, #27]
 1003954:	e59d101c 	ldr	r1, [sp, #28]
 1003958:	e5dd201c 	ldrb	r2, [sp, #28]
 100395c:	e1a01401 	lsl	r1, r1, #8
 1003960:	e1832402 	orr	r2, r3, r2, lsl #8
 1003964:	e59f55c0 	ldr	r5, [pc, #1472]	; 1003f2c <flash_get_size+0x75c>
 1003968:	e3a03e53 	mov	r3, #1328	; 0x530
 100396c:	e18420b3 	strh	r2, [r4, r3]
 1003970:	e1a01821 	lsr	r1, r1, #16
 1003974:	e59f35c8 	ldr	r3, [pc, #1480]	; 1003f44 <flash_get_size+0x774>
 1003978:	e584354c 	str	r3, [r4, #1356]	; 0x54c
 100397c:	e18410b5 	strh	r1, [r4, r5]
 1003980:	e3510000 	cmp	r1, #0
 1003984:	e5ddc034 	ldrb	ip, [sp, #52]	; 0x34
 1003988:	e58dc00c 	str	ip, [sp, #12]
 100398c:	0a000016 	beq	10039ec <flash_get_size+0x21c>
 1003990:	ea000008 	b	10039b8 <flash_get_size+0x1e8>
 1003994:	e3550008 	cmp	r5, #8
 1003998:	0a00015a 	beq	1003f08 <flash_get_size+0x738>
 100399c:	eaffffb0 	b	1003864 <flash_get_size+0x94>
 10039a0:	e1a03083 	lsl	r3, r3, #1
 10039a4:	e5c43520 	strb	r3, [r4, #1312]	; 0x520
 10039a8:	e5d43520 	ldrb	r3, [r4, #1312]	; 0x520
 10039ac:	e3530008 	cmp	r3, #8
 10039b0:	9affff9e 	bls	1003830 <flash_get_size+0x60>
 10039b4:	ea00014e 	b	1003ef4 <flash_get_size+0x724>
 10039b8:	e2811003 	add	r1, r1, #3
 10039bc:	e1a00004 	mov	r0, r4
 10039c0:	ebfffdb5 	bl	100309c <flash_read_uchar>
 10039c4:	e19410b5 	ldrh	r1, [r4, r5]
 10039c8:	e3a05d15 	mov	r5, #1344	; 0x540
 10039cc:	e2811004 	add	r1, r1, #4
 10039d0:	e1a00c00 	lsl	r0, r0, #24
 10039d4:	e1a06820 	lsr	r6, r0, #16
 10039d8:	e18460b5 	strh	r6, [r4, r5]
 10039dc:	e1a00004 	mov	r0, r4
 10039e0:	ebfffdad 	bl	100309c <flash_read_uchar>
 10039e4:	e1860000 	orr	r0, r6, r0
 10039e8:	e18400b5 	strh	r0, [r4, r5]
 10039ec:	e3a03e53 	mov	r3, #1328	; 0x530
 10039f0:	e19410b3 	ldrh	r1, [r4, r3]
 10039f4:	e3510003 	cmp	r1, #3
 10039f8:	0a000009 	beq	1003a24 <flash_get_size+0x254>
 10039fc:	8a000004 	bhi	1003a14 <flash_get_size+0x244>
 1003a00:	e3510001 	cmp	r1, #1
 1003a04:	0a000006 	beq	1003a24 <flash_get_size+0x254>
 1003a08:	e3510002 	cmp	r1, #2
 1003a0c:	1a000074 	bne	1003be4 <flash_get_size+0x414>
 1003a10:	ea000031 	b	1003adc <flash_get_size+0x30c>
 1003a14:	e3510004 	cmp	r1, #4
 1003a18:	0a00002f 	beq	1003adc <flash_get_size+0x30c>
 1003a1c:	e3510c02 	cmp	r1, #512	; 0x200
 1003a20:	1a00006f 	bne	1003be4 <flash_get_size+0x414>
 1003a24:	e59fc51c 	ldr	ip, [pc, #1308]	; 1003f48 <flash_get_size+0x778>
 1003a28:	e3a0e0ff 	mov	lr, #255	; 0xff
 1003a2c:	e3a01000 	mov	r1, #0
 1003a30:	e184e0bc 	strh	lr, [r4, ip]
 1003a34:	e1a02001 	mov	r2, r1
 1003a38:	e3a030ff 	mov	r3, #255	; 0xff
 1003a3c:	e1a00004 	mov	r0, r4
 1003a40:	ebfffd9b 	bl	10030b4 <flash_write_cmd>
 1003a44:	e3a01000 	mov	r1, #0
 1003a48:	e1a02001 	mov	r2, r1
 1003a4c:	e3a03090 	mov	r3, #144	; 0x90
 1003a50:	e1a00004 	mov	r0, r4
 1003a54:	ebfffd96 	bl	10030b4 <flash_write_cmd>
 1003a58:	e3a00ffa 	mov	r0, #1000	; 0x3e8
 1003a5c:	eb002027 	bl	100bb00 <udelay>
 1003a60:	e3a01000 	mov	r1, #0
 1003a64:	e1a00004 	mov	r0, r4
 1003a68:	ebfffd8b 	bl	100309c <flash_read_uchar>
 1003a6c:	e3a01001 	mov	r1, #1
 1003a70:	e5c40538 	strb	r0, [r4, #1336]	; 0x538
 1003a74:	e1a00004 	mov	r0, r4
 1003a78:	ebfffd87 	bl	100309c <flash_read_uchar>
 1003a7c:	e59fc4c8 	ldr	ip, [pc, #1224]	; 1003f4c <flash_get_size+0x77c>
 1003a80:	e3a01000 	mov	r1, #0
 1003a84:	e1a02001 	mov	r2, r1
 1003a88:	e3a030ff 	mov	r3, #255	; 0xff
 1003a8c:	e18400bc 	strh	r0, [r4, ip]
 1003a90:	e1a00004 	mov	r0, r4
 1003a94:	ebfffd86 	bl	10030b4 <flash_write_cmd>
 1003a98:	e59f3494 	ldr	r3, [pc, #1172]	; 1003f34 <flash_get_size+0x764>
 1003a9c:	e3a01000 	mov	r1, #0
 1003aa0:	e19420b3 	ldrh	r2, [r4, r3]
 1003aa4:	e1a00004 	mov	r0, r4
 1003aa8:	e3a03098 	mov	r3, #152	; 0x98
 1003aac:	ebfffd80 	bl	10030b4 <flash_write_cmd>
 1003ab0:	e59f3474 	ldr	r3, [pc, #1140]	; 1003f2c <flash_get_size+0x75c>
 1003ab4:	e19410b3 	ldrh	r1, [r4, r3]
 1003ab8:	e3510000 	cmp	r1, #0
 1003abc:	0a000051 	beq	1003c08 <flash_get_size+0x438>
 1003ac0:	e2811005 	add	r1, r1, #5
 1003ac4:	e1a00004 	mov	r0, r4
 1003ac8:	ebfffd73 	bl	100309c <flash_read_uchar>
 1003acc:	e59f347c 	ldr	r3, [pc, #1148]	; 1003f50 <flash_get_size+0x780>
 1003ad0:	e2000008 	and	r0, r0, #8
 1003ad4:	e18400b3 	strh	r0, [r4, r3]
 1003ad8:	ea00004a 	b	1003c08 <flash_get_size+0x438>
 1003adc:	e59fc464 	ldr	ip, [pc, #1124]	; 1003f48 <flash_get_size+0x778>
 1003ae0:	e3a01000 	mov	r1, #0
 1003ae4:	e3a060f0 	mov	r6, #240	; 0xf0
 1003ae8:	e18460bc 	strh	r6, [r4, ip]
 1003aec:	e1a02001 	mov	r2, r1
 1003af0:	e3a030f0 	mov	r3, #240	; 0xf0
 1003af4:	e1a00004 	mov	r0, r4
 1003af8:	ebfffd6d 	bl	10030b4 <flash_write_cmd>
 1003afc:	e1a00004 	mov	r0, r4
 1003b00:	e3a01000 	mov	r1, #0
 1003b04:	ebfffd90 	bl	100314c <flash_unlock_seq>
 1003b08:	e3a01000 	mov	r1, #0
 1003b0c:	e5942544 	ldr	r2, [r4, #1348]	; 0x544
 1003b10:	e3a03090 	mov	r3, #144	; 0x90
 1003b14:	e1a00004 	mov	r0, r4
 1003b18:	ebfffd65 	bl	10030b4 <flash_write_cmd>
 1003b1c:	e3a00ffa 	mov	r0, #1000	; 0x3e8
 1003b20:	eb001ff6 	bl	100bb00 <udelay>
 1003b24:	e3a01000 	mov	r1, #0
 1003b28:	e1a00004 	mov	r0, r4
 1003b2c:	ebfffd5a 	bl	100309c <flash_read_uchar>
 1003b30:	e5d41521 	ldrb	r1, [r4, #1313]	; 0x521
 1003b34:	e3510001 	cmp	r1, #1
 1003b38:	e5c40538 	strb	r0, [r4, #1336]	; 0x538
 1003b3c:	0a000002 	beq	1003b4c <flash_get_size+0x37c>
 1003b40:	e3510002 	cmp	r1, #2
 1003b44:	1a00001a 	bne	1003bb4 <flash_get_size+0x3e4>
 1003b48:	ea000012 	b	1003b98 <flash_get_size+0x3c8>
 1003b4c:	e1a00004 	mov	r0, r4
 1003b50:	ebfffd51 	bl	100309c <flash_read_uchar>
 1003b54:	e59f33f0 	ldr	r3, [pc, #1008]	; 1003f4c <flash_get_size+0x77c>
 1003b58:	e350007e 	cmp	r0, #126	; 0x7e
 1003b5c:	e18400b3 	strh	r0, [r4, r3]
 1003b60:	1a000013 	bne	1003bb4 <flash_get_size+0x3e4>
 1003b64:	e3a0100e 	mov	r1, #14
 1003b68:	e1a00004 	mov	r0, r4
 1003b6c:	ebfffd4a 	bl	100309c <flash_read_uchar>
 1003b70:	e59f53dc 	ldr	r5, [pc, #988]	; 1003f54 <flash_get_size+0x784>
 1003b74:	e3a0100f 	mov	r1, #15
 1003b78:	e1a00c00 	lsl	r0, r0, #24
 1003b7c:	e1a06820 	lsr	r6, r0, #16
 1003b80:	e18460b5 	strh	r6, [r4, r5]
 1003b84:	e1a00004 	mov	r0, r4
 1003b88:	ebfffd43 	bl	100309c <flash_read_uchar>
 1003b8c:	e1860000 	orr	r0, r6, r0
 1003b90:	e18400b5 	strh	r0, [r4, r5]
 1003b94:	ea000006 	b	1003bb4 <flash_get_size+0x3e4>
 1003b98:	e3a02001 	mov	r2, #1
 1003b9c:	e1a00004 	mov	r0, r4
 1003ba0:	e3a01000 	mov	r1, #0
 1003ba4:	ebfffd22 	bl	1003034 <flash_map>
 1003ba8:	e59f339c 	ldr	r3, [pc, #924]	; 1003f4c <flash_get_size+0x77c>
 1003bac:	e1d020b0 	ldrh	r2, [r0]
 1003bb0:	e18420b3 	strh	r2, [r4, r3]
 1003bb4:	e3a01000 	mov	r1, #0
 1003bb8:	e1a00004 	mov	r0, r4
 1003bbc:	e1a02001 	mov	r2, r1
 1003bc0:	e3a030f0 	mov	r3, #240	; 0xf0
 1003bc4:	ebfffd3a 	bl	10030b4 <flash_write_cmd>
 1003bc8:	e59f3364 	ldr	r3, [pc, #868]	; 1003f34 <flash_get_size+0x764>
 1003bcc:	e1a00004 	mov	r0, r4
 1003bd0:	e19420b3 	ldrh	r2, [r4, r3]
 1003bd4:	e3a01000 	mov	r1, #0
 1003bd8:	e3a03098 	mov	r3, #152	; 0x98
 1003bdc:	ebfffd34 	bl	10030b4 <flash_write_cmd>
 1003be0:	ea000008 	b	1003c08 <flash_get_size+0x438>
 1003be4:	e59f036c 	ldr	r0, [pc, #876]	; 1003f58 <flash_get_size+0x788>
 1003be8:	eb00146f 	bl	1008dac <printf>
 1003bec:	e3a01000 	mov	r1, #0
 1003bf0:	e1a00004 	mov	r0, r4
 1003bf4:	e1a02001 	mov	r2, r1
 1003bf8:	e3a030ff 	mov	r3, #255	; 0xff
 1003bfc:	ebfffd2c 	bl	10030b4 <flash_write_cmd>
 1003c00:	e3a00000 	mov	r0, #0
 1003c04:	ea0000bd 	b	1003f00 <flash_get_size+0x730>
 1003c08:	e5d43538 	ldrb	r3, [r4, #1336]	; 0x538
 1003c0c:	e353001f 	cmp	r3, #31
 1003c10:	0a000016 	beq	1003c70 <flash_get_size+0x4a0>
 1003c14:	e3530020 	cmp	r3, #32
 1003c18:	0a00001e 	beq	1003c98 <flash_get_size+0x4c8>
 1003c1c:	e3530001 	cmp	r3, #1
 1003c20:	1a00002b 	bne	1003cd4 <flash_get_size+0x504>
 1003c24:	e5dd3034 	ldrb	r3, [sp, #52]	; 0x34
 1003c28:	e3530001 	cmp	r3, #1
 1003c2c:	9a000028 	bls	1003cd4 <flash_get_size+0x504>
 1003c30:	e3a03d15 	mov	r3, #1344	; 0x540
 1003c34:	e19420b3 	ldrh	r2, [r4, r3]
 1003c38:	e59f331c 	ldr	r3, [pc, #796]	; 1003f5c <flash_get_size+0x78c>
 1003c3c:	e1520003 	cmp	r2, r3
 1003c40:	8a000003 	bhi	1003c54 <flash_get_size+0x484>
 1003c44:	e5d4353a 	ldrb	r3, [r4, #1338]	; 0x53a
 1003c48:	e1b033a3 	lsrs	r3, r3, #7
 1003c4c:	0a000020 	beq	1003cd4 <flash_get_size+0x504>
 1003c50:	ea00001d 	b	1003ccc <flash_get_size+0x4fc>
 1003c54:	e59f32d0 	ldr	r3, [pc, #720]	; 1003f2c <flash_get_size+0x75c>
 1003c58:	e1a00004 	mov	r0, r4
 1003c5c:	e19410b3 	ldrh	r1, [r4, r3]
 1003c60:	e281100f 	add	r1, r1, #15
 1003c64:	ebfffd0c 	bl	100309c <flash_read_uchar>
 1003c68:	e3500003 	cmp	r0, #3
 1003c6c:	ea000015 	b	1003cc8 <flash_get_size+0x4f8>
 1003c70:	e59f32b4 	ldr	r3, [pc, #692]	; 1003f2c <flash_get_size+0x75c>
 1003c74:	e19410b3 	ldrh	r1, [r4, r3]
 1003c78:	e3510000 	cmp	r1, #0
 1003c7c:	0a000014 	beq	1003cd4 <flash_get_size+0x504>
 1003c80:	e2811006 	add	r1, r1, #6
 1003c84:	e1a00004 	mov	r0, r4
 1003c88:	ebfffd03 	bl	100309c <flash_read_uchar>
 1003c8c:	e3100001 	tst	r0, #1
 1003c90:	0a00000d 	beq	1003ccc <flash_get_size+0x4fc>
 1003c94:	ea00000e 	b	1003cd4 <flash_get_size+0x504>
 1003c98:	e5dd3034 	ldrb	r3, [sp, #52]	; 0x34
 1003c9c:	e3530001 	cmp	r3, #1
 1003ca0:	9a00000b 	bls	1003cd4 <flash_get_size+0x504>
 1003ca4:	e3a03d15 	mov	r3, #1344	; 0x540
 1003ca8:	e19420b3 	ldrh	r2, [r4, r3]
 1003cac:	e59f32a8 	ldr	r3, [pc, #680]	; 1003f5c <flash_get_size+0x78c>
 1003cb0:	e1520003 	cmp	r2, r3
 1003cb4:	8a000006 	bhi	1003cd4 <flash_get_size+0x504>
 1003cb8:	e59f328c 	ldr	r3, [pc, #652]	; 1003f4c <flash_get_size+0x77c>
 1003cbc:	e19420b3 	ldrh	r2, [r4, r3]
 1003cc0:	e59f3298 	ldr	r3, [pc, #664]	; 1003f60 <flash_get_size+0x790>
 1003cc4:	e1520003 	cmp	r2, r3
 1003cc8:	1a000001 	bne	1003cd4 <flash_get_size+0x504>
 1003ccc:	e28d0018 	add	r0, sp, #24
 1003cd0:	ebfffdcb 	bl	1003404 <cfi_reverse_geometry>
 1003cd4:	e5d45521 	ldrb	r5, [r4, #1313]	; 0x521
 1003cd8:	e5d40520 	ldrb	r0, [r4, #1312]	; 0x520
 1003cdc:	e1a01005 	mov	r1, r5
 1003ce0:	eb0031de 	bl	1010460 <__udivsi3>
 1003ce4:	e59f3278 	ldr	r3, [pc, #632]	; 1003f64 <flash_get_size+0x794>
 1003ce8:	e19430b3 	ldrh	r3, [r4, r3]
 1003cec:	e3530002 	cmp	r3, #2
 1003cf0:	e200a0ff 	and	sl, r0, #255	; 0xff
 1003cf4:	1a000001 	bne	1003d00 <flash_get_size+0x530>
 1003cf8:	e3550001 	cmp	r5, #1
 1003cfc:	01a0a0ca 	asreq	sl, sl, #1
 1003d00:	e3a05000 	mov	r5, #0
 1003d04:	e58d7004 	str	r7, [sp, #4]
 1003d08:	e1a06005 	mov	r6, r5
 1003d0c:	ea000041 	b	1003e18 <flash_get_size+0x648>
 1003d10:	e3560005 	cmp	r6, #5
 1003d14:	1a000004 	bne	1003d2c <flash_get_size+0x55c>
 1003d18:	e59d100c 	ldr	r1, [sp, #12]
 1003d1c:	e59f0244 	ldr	r0, [pc, #580]	; 1003f68 <flash_get_size+0x798>
 1003d20:	e3a02004 	mov	r2, #4
 1003d24:	eb001420 	bl	1008dac <printf>
 1003d28:	ea00003d 	b	1003e24 <flash_get_size+0x654>
 1003d2c:	e2863007 	add	r3, r6, #7
 1003d30:	e28dc048 	add	ip, sp, #72	; 0x48
 1003d34:	e08c3103 	add	r3, ip, r3, lsl #2
 1003d38:	e553202c 	ldrb	r2, [r3, #-44]	; 0x2c
 1003d3c:	e5133030 	ldr	r3, [r3, #-48]	; 0x30
 1003d40:	e1a02c02 	lsl	r2, r2, #24
 1003d44:	e1822423 	orr	r2, r2, r3, lsr #8
 1003d48:	e1a03802 	lsl	r3, r2, #16
 1003d4c:	e1b02822 	lsrs	r2, r2, #16
 1003d50:	03a02080 	moveq	r2, #128	; 0x80
 1003d54:	11a02402 	lslne	r2, r2, #8
 1003d58:	e002029a 	mul	r2, sl, r2
 1003d5c:	e2857e41 	add	r7, r5, #1040	; 0x410
 1003d60:	e1a03823 	lsr	r3, r3, #16
 1003d64:	e287700c 	add	r7, r7, #12
 1003d68:	e2859003 	add	r9, r5, #3
 1003d6c:	e2833001 	add	r3, r3, #1
 1003d70:	e0847007 	add	r7, r4, r7
 1003d74:	e0849109 	add	r9, r4, r9, lsl #2
 1003d78:	e3a0b000 	mov	fp, #0
 1003d7c:	e58d3010 	str	r3, [sp, #16]
 1003d80:	e58d2014 	str	r2, [sp, #20]
 1003d84:	e58d6000 	str	r6, [sp]
 1003d88:	e3550f41 	cmp	r5, #260	; 0x104
 1003d8c:	e1a00004 	mov	r0, r4
 1003d90:	e1a01005 	mov	r1, r5
 1003d94:	e3a02002 	mov	r2, #2
 1003d98:	e3a03001 	mov	r3, #1
 1003d9c:	3a000003 	bcc	1003db0 <flash_get_size+0x5e0>
 1003da0:	e59f01c4 	ldr	r0, [pc, #452]	; 1003f6c <flash_get_size+0x79c>
 1003da4:	e59d6000 	ldr	r6, [sp]
 1003da8:	eb0013ff 	bl	1008dac <printf>
 1003dac:	ea000018 	b	1003e14 <flash_get_size+0x644>
 1003db0:	e59de004 	ldr	lr, [sp, #4]
 1003db4:	e589e000 	str	lr, [r9]
 1003db8:	e3a0ce53 	mov	ip, #1328	; 0x530
 1003dbc:	e194c0bc 	ldrh	ip, [r4, ip]
 1003dc0:	e59d6014 	ldr	r6, [sp, #20]
 1003dc4:	e35c0003 	cmp	ip, #3
 1003dc8:	e08ee006 	add	lr, lr, r6
 1003dcc:	e58de004 	str	lr, [sp, #4]
 1003dd0:	0a000005 	beq	1003dec <flash_get_size+0x61c>
 1003dd4:	e35c0c02 	cmp	ip, #512	; 0x200
 1003dd8:	0a000003 	beq	1003dec <flash_get_size+0x61c>
 1003ddc:	e35c0001 	cmp	ip, #1
 1003de0:	13a03000 	movne	r3, #0
 1003de4:	15c73000 	strbne	r3, [r7]
 1003de8:	1a000001 	bne	1003df4 <flash_get_size+0x624>
 1003dec:	ebfffd10 	bl	1003234 <flash_isset>
 1003df0:	e5c70000 	strb	r0, [r7]
 1003df4:	e59dc010 	ldr	ip, [sp, #16]
 1003df8:	e28bb001 	add	fp, fp, #1
 1003dfc:	e15b000c 	cmp	fp, ip
 1003e00:	e2855001 	add	r5, r5, #1
 1003e04:	e2877001 	add	r7, r7, #1
 1003e08:	e2899004 	add	r9, r9, #4
 1003e0c:	baffffdd 	blt	1003d88 <flash_get_size+0x5b8>
 1003e10:	e59d6000 	ldr	r6, [sp]
 1003e14:	e2866001 	add	r6, r6, #1
 1003e18:	e59de00c 	ldr	lr, [sp, #12]
 1003e1c:	e156000e 	cmp	r6, lr
 1003e20:	baffffba 	blt	1003d10 <flash_get_size+0x540>
 1003e24:	e5dd0028 	ldrb	r0, [sp, #40]	; 0x28
 1003e28:	e3a06001 	mov	r6, #1
 1003e2c:	e5dd202c 	ldrb	r2, [sp, #44]	; 0x2c
 1003e30:	e5dd3029 	ldrb	r3, [sp, #41]	; 0x29
 1003e34:	e1a00016 	lsl	r0, r6, r0
 1003e38:	e5dd102f 	ldrb	r1, [sp, #47]	; 0x2f
 1003e3c:	e1ddc3b2 	ldrh	ip, [sp, #50]	; 0x32
 1003e40:	e1a00210 	lsl	r0, r0, r2
 1003e44:	e1a03316 	lsl	r3, r6, r3
 1003e48:	e5dd202d 	ldrb	r2, [sp, #45]	; 0x2d
 1003e4c:	e1a01116 	lsl	r1, r6, r1
 1003e50:	e1a03213 	lsl	r3, r3, r2
 1003e54:	e1a0cc16 	lsl	ip, r6, ip
 1003e58:	e59f2110 	ldr	r2, [pc, #272]	; 1003f70 <flash_get_size+0x7a0>
 1003e5c:	e00a0a91 	mul	sl, r1, sl
 1003e60:	e184c0b2 	strh	ip, [r4, r2]
 1003e64:	e1c450b4 	strh	r5, [r4, #4]
 1003e68:	e59d2008 	ldr	r2, [sp, #8]
 1003e6c:	e59fc0b4 	ldr	ip, [pc, #180]	; 1003f28 <flash_get_size+0x758>
 1003e70:	e2800ff9 	add	r0, r0, #996	; 0x3e4
 1003e74:	e78ca002 	str	sl, [ip, r2]
 1003e78:	e3a01ffa 	mov	r1, #1000	; 0x3e8
 1003e7c:	e5843524 	str	r3, [r4, #1316]	; 0x524
 1003e80:	e2800003 	add	r0, r0, #3
 1003e84:	eb003175 	bl	1010460 <__udivsi3>
 1003e88:	e5dd2027 	ldrb	r2, [sp, #39]	; 0x27
 1003e8c:	e5dd302b 	ldrb	r3, [sp, #43]	; 0x2b
 1003e90:	e1a06216 	lsl	r6, r6, r2
 1003e94:	e1a06316 	lsl	r6, r6, r3
 1003e98:	e3a01ffa 	mov	r1, #1000	; 0x3e8
 1003e9c:	e584052c 	str	r0, [r4, #1324]	; 0x52c
 1003ea0:	e2860ff9 	add	r0, r6, #996	; 0x3e4
 1003ea4:	e2800003 	add	r0, r0, #3
 1003ea8:	eb00316c 	bl	1010460 <__udivsi3>
 1003eac:	e59f30b0 	ldr	r3, [pc, #176]	; 1003f64 <flash_get_size+0x794>
 1003eb0:	e3a02401 	mov	r2, #16777216	; 0x1000000
 1003eb4:	e19430b3 	ldrh	r3, [r4, r3]
 1003eb8:	e5842008 	str	r2, [r4, #8]
 1003ebc:	e3530002 	cmp	r3, #2
 1003ec0:	e5840528 	str	r0, [r4, #1320]	; 0x528
 1003ec4:	1a000004 	bne	1003edc <flash_get_size+0x70c>
 1003ec8:	e5d43521 	ldrb	r3, [r4, #1313]	; 0x521
 1003ecc:	e3530001 	cmp	r3, #1
 1003ed0:	05d43520 	ldrbeq	r3, [r4, #1312]	; 0x520
 1003ed4:	01a030a3 	lsreq	r3, r3, #1
 1003ed8:	05c43520 	strbeq	r3, [r4, #1312]	; 0x520
 1003edc:	e59f3064 	ldr	r3, [pc, #100]	; 1003f48 <flash_get_size+0x778>
 1003ee0:	e3a01000 	mov	r1, #0
 1003ee4:	e1a00004 	mov	r0, r4
 1003ee8:	e19430b3 	ldrh	r3, [r4, r3]
 1003eec:	e1a02001 	mov	r2, r1
 1003ef0:	ebfffc6f 	bl	10030b4 <flash_write_cmd>
 1003ef4:	e59f302c 	ldr	r3, [pc, #44]	; 1003f28 <flash_get_size+0x758>
 1003ef8:	e59d2008 	ldr	r2, [sp, #8]
 1003efc:	e7930002 	ldr	r0, [r3, r2]
 1003f00:	e28dd048 	add	sp, sp, #72	; 0x48
 1003f04:	e8bd8ef0 	pop	{r4, r5, r6, r7, r9, sl, fp, pc}
 1003f08:	e5d43521 	ldrb	r3, [r4, #1313]	; 0x521
 1003f0c:	e1a03083 	lsl	r3, r3, #1
 1003f10:	e5c43521 	strb	r3, [r4, #1313]	; 0x521
 1003f14:	e5d43520 	ldrb	r3, [r4, #1312]	; 0x520
 1003f18:	e5d42521 	ldrb	r2, [r4, #1313]	; 0x521
 1003f1c:	e1520003 	cmp	r2, r3
 1003f20:	9afffe44 	bls	1003838 <flash_get_size+0x68>
 1003f24:	eafffe9d 	b	10039a0 <flash_get_size+0x1d0>
 1003f28:	010178a8 	smlatbeq	r1, r8, r8, r7
 1003f2c:	0000053e 	andeq	r0, r0, lr, lsr r5
 1003f30:	010108d0 	ldrdeq	r0, [r1, -r0]
 1003f34:	00000542 	andeq	r0, r0, r2, asr #10
 1003f38:	000002aa 	andeq	r0, r0, sl, lsr #5
 1003f3c:	00000aaa 	andeq	r0, r0, sl, lsr #21
 1003f40:	00000555 	andeq	r0, r0, r5, asr r5
 1003f44:	01011762 	tsteq	r1, r2, ror #14
 1003f48:	00000532 	andeq	r0, r0, r2, lsr r5
 1003f4c:	0000053a 	andeq	r0, r0, sl, lsr r5
 1003f50:	00000536 	andeq	r0, r0, r6, lsr r5
 1003f54:	0000053c 	andeq	r0, r0, ip, lsr r5
 1003f58:	01011771 	tsteq	r1, r1, ror r7
 1003f5c:	00003130 	andeq	r3, r0, r0, lsr r1
 1003f60:	00002256 	andeq	r2, r0, r6, asr r2
 1003f64:	00000534 	andeq	r0, r0, r4, lsr r5
 1003f68:	01011790 	tsteq	r1, r0, lsl r7
 1003f6c:	010117b6 	strheq	r1, [r1, -r6]
 1003f70:	00000522 	andeq	r0, r0, r2, lsr #10

01003f74 <flash_full_status_check>:
 1003f74:	e92d46f3 	push	{r0, r1, r4, r5, r6, r7, r9, sl, lr}
 1003f78:	e1a04000 	mov	r4, r0
 1003f7c:	e3a00000 	mov	r0, #0
 1003f80:	e1a05001 	mov	r5, r1
 1003f84:	e1a06002 	mov	r6, r2
 1003f88:	e1a07003 	mov	r7, r3
 1003f8c:	eb001ed6 	bl	100baec <get_timer>
 1003f90:	e1a09000 	mov	r9, r0
 1003f94:	ea000020 	b	100401c <flash_full_status_check+0xa8>
 1003f98:	e1a00009 	mov	r0, r9
 1003f9c:	eb001ed2 	bl	100baec <get_timer>
 1003fa0:	e1500006 	cmp	r0, r6
 1003fa4:	9a00001a 	bls	1004014 <flash_full_status_check+0xa0>
 1003fa8:	e1a01005 	mov	r1, r5
 1003fac:	e3a02000 	mov	r2, #0
 1003fb0:	e1a00004 	mov	r0, r4
 1003fb4:	ebfffc1e 	bl	1003034 <flash_map>
 1003fb8:	e5d42520 	ldrb	r2, [r4, #1312]	; 0x520
 1003fbc:	e3a01003 	mov	r1, #3
 1003fc0:	e0010192 	mul	r1, r2, r1
 1003fc4:	e3a06001 	mov	r6, #1
 1003fc8:	e5d0e000 	ldrb	lr, [r0]
 1003fcc:	e7d0c002 	ldrb	ip, [r0, r2]
 1003fd0:	e7d03082 	ldrb	r3, [r0, r2, lsl #1]
 1003fd4:	e7d01001 	ldrb	r1, [r0, r1]
 1003fd8:	e183380e 	orr	r3, r3, lr, lsl #16
 1003fdc:	e1833c0c 	orr	r3, r3, ip, lsl #24
 1003fe0:	e2852003 	add	r2, r5, #3
 1003fe4:	e1833401 	orr	r3, r3, r1, lsl #8
 1003fe8:	e7942102 	ldr	r2, [r4, r2, lsl #2]
 1003fec:	e59f025c 	ldr	r0, [pc, #604]	; 1004250 <flash_full_status_check+0x2dc>
 1003ff0:	e1a01007 	mov	r1, r7
 1003ff4:	eb00136c 	bl	1008dac <printf>
 1003ff8:	e59f3254 	ldr	r3, [pc, #596]	; 1004254 <flash_full_status_check+0x2e0>
 1003ffc:	e1a00004 	mov	r0, r4
 1004000:	e19430b3 	ldrh	r3, [r4, r3]
 1004004:	e1a01005 	mov	r1, r5
 1004008:	e3a02000 	mov	r2, #0
 100400c:	ebfffc28 	bl	10030b4 <flash_write_cmd>
 1004010:	ea000041 	b	100411c <flash_full_status_check+0x1a8>
 1004014:	e3a00001 	mov	r0, #1
 1004018:	eb001eb8 	bl	100bb00 <udelay>
 100401c:	e3a03e53 	mov	r3, #1328	; 0x530
 1004020:	e19430b3 	ldrh	r3, [r4, r3]
 1004024:	e3530003 	cmp	r3, #3
 1004028:	0a000009 	beq	1004054 <flash_full_status_check+0xe0>
 100402c:	8a000004 	bhi	1004044 <flash_full_status_check+0xd0>
 1004030:	e3530001 	cmp	r3, #1
 1004034:	0a000006 	beq	1004054 <flash_full_status_check+0xe0>
 1004038:	e3530002 	cmp	r3, #2
 100403c:	1a000035 	bne	1004118 <flash_full_status_check+0x1a4>
 1004040:	ea00000b 	b	1004074 <flash_full_status_check+0x100>
 1004044:	e3530004 	cmp	r3, #4
 1004048:	0a000009 	beq	1004074 <flash_full_status_check+0x100>
 100404c:	e3530c02 	cmp	r3, #512	; 0x200
 1004050:	1a000030 	bne	1004118 <flash_full_status_check+0x1a4>
 1004054:	e1a00004 	mov	r0, r4
 1004058:	e1a01005 	mov	r1, r5
 100405c:	e3a02000 	mov	r2, #0
 1004060:	e3a03080 	mov	r3, #128	; 0x80
 1004064:	ebfffc72 	bl	1003234 <flash_isset>
 1004068:	e2700001 	rsbs	r0, r0, #1
 100406c:	33a00000 	movcc	r0, #0
 1004070:	ea000026 	b	1004110 <flash_full_status_check+0x19c>
 1004074:	e1a01005 	mov	r1, r5
 1004078:	e3a02000 	mov	r2, #0
 100407c:	e1a00004 	mov	r0, r4
 1004080:	ebfffbeb 	bl	1003034 <flash_map>
 1004084:	e3a01040 	mov	r1, #64	; 0x40
 1004088:	e1a0200d 	mov	r2, sp
 100408c:	e1a0a000 	mov	sl, r0
 1004090:	e1a00004 	mov	r0, r4
 1004094:	ebfffbeb 	bl	1003048 <flash_make_cmd>
 1004098:	e5d43520 	ldrb	r3, [r4, #1312]	; 0x520
 100409c:	e2433001 	sub	r3, r3, #1
 10040a0:	e3530007 	cmp	r3, #7
 10040a4:	979ff103 	ldrls	pc, [pc, r3, lsl #2]
 10040a8:	ea00001a 	b	1004118 <flash_full_status_check+0x1a4>
 10040ac:	010040cc 	smlabteq	r0, ip, r0, r4
 10040b0:	010040d8 	ldrdeq	r4, [r0, -r8]
 10040b4:	01004118 	tsteq	r0, r8, lsl r1
 10040b8:	010040e4 	smlatteq	r0, r4, r0, r4
 10040bc:	01004118 	tsteq	r0, r8, lsl r1
 10040c0:	01004118 	tsteq	r0, r8, lsl r1
 10040c4:	01004118 	tsteq	r0, r8, lsl r1
 10040c8:	010040f0 	strdeq	r4, [r0, r0]
 10040cc:	e5da0000 	ldrb	r0, [sl]
 10040d0:	e5da3000 	ldrb	r3, [sl]
 10040d4:	ea00000b 	b	1004108 <flash_full_status_check+0x194>
 10040d8:	e1da00b0 	ldrh	r0, [sl]
 10040dc:	e1da30b0 	ldrh	r3, [sl]
 10040e0:	ea000008 	b	1004108 <flash_full_status_check+0x194>
 10040e4:	e59a0000 	ldr	r0, [sl]
 10040e8:	e59a3000 	ldr	r3, [sl]
 10040ec:	ea000005 	b	1004108 <flash_full_status_check+0x194>
 10040f0:	e59a2000 	ldr	r2, [sl]
 10040f4:	e59a3000 	ldr	r3, [sl]
 10040f8:	e1520003 	cmp	r2, r3
 10040fc:	1affffa5 	bne	1003f98 <flash_full_status_check+0x24>
 1004100:	e59a0004 	ldr	r0, [sl, #4]
 1004104:	e59a3004 	ldr	r3, [sl, #4]
 1004108:	e0500003 	subs	r0, r0, r3
 100410c:	13a00001 	movne	r0, #1
 1004110:	e3500000 	cmp	r0, #0
 1004114:	1affff9f 	bne	1003f98 <flash_full_status_check+0x24>
 1004118:	e3a06000 	mov	r6, #0
 100411c:	e3a03e53 	mov	r3, #1328	; 0x530
 1004120:	e19430b3 	ldrh	r3, [r4, r3]
 1004124:	e3530003 	cmp	r3, #3
 1004128:	0a000003 	beq	100413c <flash_full_status_check+0x1c8>
 100412c:	e3530c02 	cmp	r3, #512	; 0x200
 1004130:	0a000001 	beq	100413c <flash_full_status_check+0x1c8>
 1004134:	e3530001 	cmp	r3, #1
 1004138:	1a000042 	bne	1004248 <flash_full_status_check+0x2d4>
 100413c:	e3560000 	cmp	r6, #0
 1004140:	0a00003a 	beq	1004230 <flash_full_status_check+0x2bc>
 1004144:	e1a00004 	mov	r0, r4
 1004148:	e1a01005 	mov	r1, r5
 100414c:	e3a02000 	mov	r2, #0
 1004150:	e3a03080 	mov	r3, #128	; 0x80
 1004154:	ebfffc08 	bl	100317c <flash_isequal>
 1004158:	e2506000 	subs	r6, r0, #0
 100415c:	13a06001 	movne	r6, #1
 1004160:	1a000032 	bne	1004230 <flash_full_status_check+0x2bc>
 1004164:	e2853003 	add	r3, r5, #3
 1004168:	e7942103 	ldr	r2, [r4, r3, lsl #2]
 100416c:	e1a01007 	mov	r1, r7
 1004170:	e59f00e0 	ldr	r0, [pc, #224]	; 1004258 <flash_full_status_check+0x2e4>
 1004174:	eb00130c 	bl	1008dac <printf>
 1004178:	e1a02006 	mov	r2, r6
 100417c:	e1a00004 	mov	r0, r4
 1004180:	e1a01005 	mov	r1, r5
 1004184:	e3a03030 	mov	r3, #48	; 0x30
 1004188:	ebfffc29 	bl	1003234 <flash_isset>
 100418c:	e2502000 	subs	r2, r0, #0
 1004190:	159f00c4 	ldrne	r0, [pc, #196]	; 100425c <flash_full_status_check+0x2e8>
 1004194:	1a000010 	bne	10041dc <flash_full_status_check+0x268>
 1004198:	e1a00004 	mov	r0, r4
 100419c:	e1a01005 	mov	r1, r5
 10041a0:	e3a03020 	mov	r3, #32
 10041a4:	ebfffc22 	bl	1003234 <flash_isset>
 10041a8:	e2502000 	subs	r2, r0, #0
 10041ac:	0a000003 	beq	10041c0 <flash_full_status_check+0x24c>
 10041b0:	e59f00a8 	ldr	r0, [pc, #168]	; 1004260 <flash_full_status_check+0x2ec>
 10041b4:	eb0012ea 	bl	1008d64 <puts>
 10041b8:	e3a06002 	mov	r6, #2
 10041bc:	ea000008 	b	10041e4 <flash_full_status_check+0x270>
 10041c0:	e1a00004 	mov	r0, r4
 10041c4:	e1a01005 	mov	r1, r5
 10041c8:	e3a03010 	mov	r3, #16
 10041cc:	ebfffc18 	bl	1003234 <flash_isset>
 10041d0:	e3500000 	cmp	r0, #0
 10041d4:	0a000001 	beq	10041e0 <flash_full_status_check+0x26c>
 10041d8:	e59f0084 	ldr	r0, [pc, #132]	; 1004264 <flash_full_status_check+0x2f0>
 10041dc:	eb0012e0 	bl	1008d64 <puts>
 10041e0:	e3a06008 	mov	r6, #8
 10041e4:	e1a00004 	mov	r0, r4
 10041e8:	e1a01005 	mov	r1, r5
 10041ec:	e3a02000 	mov	r2, #0
 10041f0:	e3a03002 	mov	r3, #2
 10041f4:	ebfffc0e 	bl	1003234 <flash_isset>
 10041f8:	e3500000 	cmp	r0, #0
 10041fc:	0a000002 	beq	100420c <flash_full_status_check+0x298>
 1004200:	e59f0060 	ldr	r0, [pc, #96]	; 1004268 <flash_full_status_check+0x2f4>
 1004204:	eb0012d6 	bl	1008d64 <puts>
 1004208:	e3a06004 	mov	r6, #4
 100420c:	e1a00004 	mov	r0, r4
 1004210:	e1a01005 	mov	r1, r5
 1004214:	e3a02000 	mov	r2, #0
 1004218:	e3a03008 	mov	r3, #8
 100421c:	ebfffc04 	bl	1003234 <flash_isset>
 1004220:	e3500000 	cmp	r0, #0
 1004224:	0a000001 	beq	1004230 <flash_full_status_check+0x2bc>
 1004228:	e59f003c 	ldr	r0, [pc, #60]	; 100426c <flash_full_status_check+0x2f8>
 100422c:	eb0012cc 	bl	1008d64 <puts>
 1004230:	e59f301c 	ldr	r3, [pc, #28]	; 1004254 <flash_full_status_check+0x2e0>
 1004234:	e1a00004 	mov	r0, r4
 1004238:	e1a01005 	mov	r1, r5
 100423c:	e19430b3 	ldrh	r3, [r4, r3]
 1004240:	e3a02000 	mov	r2, #0
 1004244:	ebfffb9a 	bl	10030b4 <flash_write_cmd>
 1004248:	e1a00006 	mov	r0, r6
 100424c:	e8bd86fc 	pop	{r2, r3, r4, r5, r6, r7, r9, sl, pc}
 1004250:	010117d5 	ldrdeq	r1, [r1, -r5]
 1004254:	00000532 	andeq	r0, r0, r2, lsr r5
 1004258:	010117ff 	strdeq	r1, [r1, -pc]
 100425c:	0101181e 	tsteq	r1, lr, lsl r8
 1004260:	01011837 	tsteq	r1, r7, lsr r8
 1004264:	0101184b 	tsteq	r1, fp, asr #16
 1004268:	0101185a 	tsteq	r1, sl, asr r8
 100426c:	01011869 	tsteq	r1, r9, ror #16

01004270 <flash_real_protect>:
 1004270:	e3a03e53 	mov	r3, #1328	; 0x530
 1004274:	e92d40f0 	push	{r4, r5, r6, r7, lr}
 1004278:	e19030b3 	ldrh	r3, [r0, r3]
 100427c:	e1a04000 	mov	r4, r0
 1004280:	e3530003 	cmp	r3, #3
 1004284:	e1a06001 	mov	r6, r1
 1004288:	e1a05002 	mov	r5, r2
 100428c:	0a000009 	beq	10042b8 <flash_real_protect+0x48>
 1004290:	8a000004 	bhi	10042a8 <flash_real_protect+0x38>
 1004294:	e3530001 	cmp	r3, #1
 1004298:	0a000006 	beq	10042b8 <flash_real_protect+0x48>
 100429c:	e3530002 	cmp	r3, #2
 10042a0:	1a00003b 	bne	1004394 <flash_real_protect+0x124>
 10042a4:	ea000017 	b	1004308 <flash_real_protect+0x98>
 10042a8:	e3530004 	cmp	r3, #4
 10042ac:	0a000015 	beq	1004308 <flash_real_protect+0x98>
 10042b0:	e3530c02 	cmp	r3, #512	; 0x200
 10042b4:	1a000036 	bne	1004394 <flash_real_protect+0x124>
 10042b8:	e3a02000 	mov	r2, #0
 10042bc:	e3a03050 	mov	r3, #80	; 0x50
 10042c0:	e1a00004 	mov	r0, r4
 10042c4:	e1a01006 	mov	r1, r6
 10042c8:	ebfffb79 	bl	10030b4 <flash_write_cmd>
 10042cc:	e1a00004 	mov	r0, r4
 10042d0:	e1a01006 	mov	r1, r6
 10042d4:	e3a02000 	mov	r2, #0
 10042d8:	e3a03060 	mov	r3, #96	; 0x60
 10042dc:	ebfffb74 	bl	10030b4 <flash_write_cmd>
 10042e0:	e3550000 	cmp	r5, #0
 10042e4:	11a00004 	movne	r0, r4
 10042e8:	11a01006 	movne	r1, r6
 10042ec:	13a02000 	movne	r2, #0
 10042f0:	13a03001 	movne	r3, #1
 10042f4:	01a00004 	moveq	r0, r4
 10042f8:	01a01006 	moveq	r1, r6
 10042fc:	01a02005 	moveq	r2, r5
 1004300:	03a030d0 	moveq	r3, #208	; 0xd0
 1004304:	ea000021 	b	1004390 <flash_real_protect+0x120>
 1004308:	e5d43538 	ldrb	r3, [r4, #1336]	; 0x538
 100430c:	e353001f 	cmp	r3, #31
 1004310:	1a00001f 	bne	1004394 <flash_real_protect+0x124>
 1004314:	e3550000 	cmp	r5, #0
 1004318:	0a00000f 	beq	100435c <flash_real_protect+0xec>
 100431c:	e1a00004 	mov	r0, r4
 1004320:	e3a01000 	mov	r1, #0
 1004324:	ebfffb88 	bl	100314c <flash_unlock_seq>
 1004328:	e5942544 	ldr	r2, [r4, #1348]	; 0x544
 100432c:	e3a03080 	mov	r3, #128	; 0x80
 1004330:	e1a00004 	mov	r0, r4
 1004334:	e3a01000 	mov	r1, #0
 1004338:	ebfffb5d 	bl	10030b4 <flash_write_cmd>
 100433c:	e1a00004 	mov	r0, r4
 1004340:	e3a01000 	mov	r1, #0
 1004344:	ebfffb80 	bl	100314c <flash_unlock_seq>
 1004348:	e1a00004 	mov	r0, r4
 100434c:	e1a01006 	mov	r1, r6
 1004350:	e3a02000 	mov	r2, #0
 1004354:	e3a03040 	mov	r3, #64	; 0x40
 1004358:	ea00000c 	b	1004390 <flash_real_protect+0x120>
 100435c:	e3a030aa 	mov	r3, #170	; 0xaa
 1004360:	e1a00004 	mov	r0, r4
 1004364:	e1a01005 	mov	r1, r5
 1004368:	e5942544 	ldr	r2, [r4, #1348]	; 0x544
 100436c:	ebfffb50 	bl	10030b4 <flash_write_cmd>
 1004370:	e59f30a8 	ldr	r3, [pc, #168]	; 1004420 <flash_real_protect+0x1b0>
 1004374:	e19430b3 	ldrh	r3, [r4, r3]
 1004378:	e35300d6 	cmp	r3, #214	; 0xd6
 100437c:	1a000004 	bne	1004394 <flash_real_protect+0x124>
 1004380:	e1a00004 	mov	r0, r4
 1004384:	e1a01006 	mov	r1, r6
 1004388:	e1a02005 	mov	r2, r5
 100438c:	e3a03070 	mov	r3, #112	; 0x70
 1004390:	ebfffb47 	bl	10030b4 <flash_write_cmd>
 1004394:	e59f2088 	ldr	r2, [pc, #136]	; 1004424 <flash_real_protect+0x1b4>
 1004398:	e3550000 	cmp	r5, #0
 100439c:	e59f3084 	ldr	r3, [pc, #132]	; 1004428 <flash_real_protect+0x1b8>
 10043a0:	e1a00004 	mov	r0, r4
 10043a4:	11a03002 	movne	r3, r2
 10043a8:	e1a01006 	mov	r1, r6
 10043ac:	e5942524 	ldr	r2, [r4, #1316]	; 0x524
 10043b0:	ebfffeef 	bl	1003f74 <flash_full_status_check>
 10043b4:	e2507000 	subs	r7, r0, #0
 10043b8:	1a000016 	bne	1004418 <flash_real_protect+0x1a8>
 10043bc:	e0846006 	add	r6, r4, r6
 10043c0:	e3550000 	cmp	r5, #0
 10043c4:	e5c6541c 	strb	r5, [r6, #1052]	; 0x41c
 10043c8:	1a000012 	bne	1004418 <flash_real_protect+0x1a8>
 10043cc:	e59f3058 	ldr	r3, [pc, #88]	; 100442c <flash_real_protect+0x1bc>
 10043d0:	e19430b3 	ldrh	r3, [r4, r3]
 10043d4:	e3530000 	cmp	r3, #0
 10043d8:	11a06004 	movne	r6, r4
 10043dc:	11a05007 	movne	r5, r7
 10043e0:	1a000009 	bne	100440c <flash_real_protect+0x19c>
 10043e4:	ea00000b 	b	1004418 <flash_real_protect+0x1a8>
 10043e8:	e5d6341c 	ldrb	r3, [r6, #1052]	; 0x41c
 10043ec:	e2866001 	add	r6, r6, #1
 10043f0:	e3530000 	cmp	r3, #0
 10043f4:	0a000003 	beq	1004408 <flash_real_protect+0x198>
 10043f8:	e1a01005 	mov	r1, r5
 10043fc:	e1a00004 	mov	r0, r4
 1004400:	e3a02001 	mov	r2, #1
 1004404:	ebffff99 	bl	1004270 <flash_real_protect>
 1004408:	e2855001 	add	r5, r5, #1
 100440c:	e1d430b4 	ldrh	r3, [r4, #4]
 1004410:	e1550003 	cmp	r5, r3
 1004414:	3afffff3 	bcc	10043e8 <flash_real_protect+0x178>
 1004418:	e1a00007 	mov	r0, r7
 100441c:	e8bd80f0 	pop	{r4, r5, r6, r7, pc}
 1004420:	0000053a 	andeq	r0, r0, sl, lsr r5
 1004424:	0101187b 	tsteq	r1, fp, ror r8
 1004428:	01011879 	tsteq	r1, r9, ror r8
 100442c:	00000536 	andeq	r0, r0, r6, lsr r5

01004430 <flash_init>:
 1004430:	e92d40f0 	push	{r4, r5, r6, r7, lr}
 1004434:	e59f0128 	ldr	r0, [pc, #296]	; 1004564 <flash_init+0x134>
 1004438:	eb000f32 	bl	1008108 <getenv>
 100443c:	e59f5124 	ldr	r5, [pc, #292]	; 1004568 <flash_init+0x138>
 1004440:	e59f7124 	ldr	r7, [pc, #292]	; 100456c <flash_init+0x13c>
 1004444:	e3a01000 	mov	r1, #0
 1004448:	e5857008 	str	r7, [r5, #8]
 100444c:	e1a06000 	mov	r6, r0
 1004450:	e3a0030d 	mov	r0, #872415232	; 0x34000000
 1004454:	ebfffcdd 	bl	10037d0 <flash_get_size>
 1004458:	e5953008 	ldr	r3, [r5, #8]
 100445c:	e5954000 	ldr	r4, [r5]
 1004460:	e1530007 	cmp	r3, r7
 1004464:	1a000005 	bne	1004480 <flash_init+0x50>
 1004468:	e59f0100 	ldr	r0, [pc, #256]	; 1004570 <flash_init+0x140>
 100446c:	e3a01001 	mov	r1, #1
 1004470:	e1a02004 	mov	r2, r4
 1004474:	e1a03a04 	lsl	r3, r4, #20
 1004478:	eb00124b 	bl	1008dac <printf>
 100447c:	ea000024 	b	1004514 <flash_init+0xe4>
 1004480:	e3560000 	cmp	r6, #0
 1004484:	0a000022 	beq	1004514 <flash_init+0xe4>
 1004488:	e1a00006 	mov	r0, r6
 100448c:	e59f10e0 	ldr	r1, [pc, #224]	; 1004574 <flash_init+0x144>
 1004490:	eb002099 	bl	100c6fc <strcmp>
 1004494:	e2503000 	subs	r3, r0, #0
 1004498:	1a00001d 	bne	1004514 <flash_init+0xe4>
 100449c:	e59f60d4 	ldr	r6, [pc, #212]	; 1004578 <flash_init+0x148>
 10044a0:	e19520b6 	ldrh	r2, [r5, r6]
 10044a4:	e3520000 	cmp	r2, #0
 10044a8:	0a000011 	beq	10044f4 <flash_init+0xc4>
 10044ac:	e1a01003 	mov	r1, r3
 10044b0:	e1a02003 	mov	r2, r3
 10044b4:	e18530b6 	strh	r3, [r5, r6]
 10044b8:	e1a00005 	mov	r0, r5
 10044bc:	ebffff6b 	bl	1004270 <flash_real_protect>
 10044c0:	e3a03001 	mov	r3, #1
 10044c4:	e18530b6 	strh	r3, [r5, r6]
 10044c8:	e1d510b4 	ldrh	r1, [r5, #4]
 10044cc:	e59f20a8 	ldr	r2, [pc, #168]	; 100457c <flash_init+0x14c>
 10044d0:	e3a03001 	mov	r3, #1
 10044d4:	ea000001 	b	10044e0 <flash_init+0xb0>
 10044d8:	e3a00000 	mov	r0, #0
 10044dc:	e5420001 	strb	r0, [r2, #-1]
 10044e0:	e1530001 	cmp	r3, r1
 10044e4:	e2822001 	add	r2, r2, #1
 10044e8:	e2833001 	add	r3, r3, #1
 10044ec:	bafffff9 	blt	10044d8 <flash_init+0xa8>
 10044f0:	ea000007 	b	1004514 <flash_init+0xe4>
 10044f4:	e595300c 	ldr	r3, [r5, #12]
 10044f8:	e5952000 	ldr	r2, [r5]
 10044fc:	e1a01003 	mov	r1, r3
 1004500:	e0833002 	add	r3, r3, r2
 1004504:	e2432001 	sub	r2, r3, #1
 1004508:	e3a00002 	mov	r0, #2
 100450c:	e1a03005 	mov	r3, r5
 1004510:	eb001914 	bl	100a968 <flash_protect>
 1004514:	e59f3064 	ldr	r3, [pc, #100]	; 1004580 <flash_init+0x150>
 1004518:	e59f0064 	ldr	r0, [pc, #100]	; 1004584 <flash_init+0x154>
 100451c:	e5935000 	ldr	r5, [r3]
 1004520:	ebfffaa3 	bl	1002fb4 <flash_get_info>
 1004524:	e2455372 	sub	r5, r5, #-939524095	; 0xc8000001
 1004528:	e2455706 	sub	r5, r5, #1572864	; 0x180000
 100452c:	e1a02005 	mov	r2, r5
 1004530:	e59f104c 	ldr	r1, [pc, #76]	; 1004584 <flash_init+0x154>
 1004534:	e1a03000 	mov	r3, r0
 1004538:	e3a00001 	mov	r0, #1
 100453c:	eb001909 	bl	100a968 <flash_protect>
 1004540:	e59f0040 	ldr	r0, [pc, #64]	; 1004588 <flash_init+0x158>
 1004544:	ebfffa9a 	bl	1002fb4 <flash_get_info>
 1004548:	e59f1038 	ldr	r1, [pc, #56]	; 1004588 <flash_init+0x158>
 100454c:	e59f2038 	ldr	r2, [pc, #56]	; 100458c <flash_init+0x15c>
 1004550:	e1a03000 	mov	r3, r0
 1004554:	e3a00001 	mov	r0, #1
 1004558:	eb001902 	bl	100a968 <flash_protect>
 100455c:	e1a00004 	mov	r0, r4
 1004560:	e8bd80f0 	pop	{r4, r5, r6, r7, pc}
 1004564:	01011883 	smlabbeq	r1, r3, r8, r1
 1004568:	010178a8 	smlatbeq	r1, r8, r8, r7
 100456c:	0000ffff 	strdeq	pc, [r0], -pc
 1004570:	0101188a 	smlabbeq	r1, sl, r8, r1
 1004574:	010118c1 	smlabteq	r1, r1, r8, r1
 1004578:	00000536 	andeq	r0, r0, r6, lsr r5
 100457c:	01017cc5 	smlabteq	r1, r5, ip, r7
 1004580:	01015204 	tsteq	r1, r4, lsl #4
 1004584:	37e80000 	strbcc	r0, [r8, r0]!
 1004588:	37f80000 	ldrbcc	r0, [r8, r0]!
 100458c:	37fbffff 	undefined instruction 0x37fbffff

01004590 <flash_write_cfiword>:
 1004590:	e92d4ef0 	push	{r4, r5, r6, r7, r9, sl, fp, lr}
 1004594:	e1a04000 	mov	r4, r0
 1004598:	e5d00520 	ldrb	r0, [r0, #1312]	; 0x520
 100459c:	e1a05001 	mov	r5, r1
 10045a0:	e2400001 	sub	r0, r0, #1
 10045a4:	e1a06002 	mov	r6, r2
 10045a8:	e1a09003 	mov	r9, r3
 10045ac:	e3500007 	cmp	r0, #7
 10045b0:	979ff100 	ldrls	pc, [pc, r0, lsl #2]
 10045b4:	ea00007b 	b	10047a8 <flash_write_cfiword+0x218>
 10045b8:	010045d8 	ldrdeq	r4, [r0, -r8]
 10045bc:	010045e4 	smlatteq	r0, r4, r5, r4
 10045c0:	010047a8 	smlatbeq	r0, r8, r7, r4
 10045c4:	01004604 	tsteq	r0, r4, lsl #12
 10045c8:	010047a8 	smlatbeq	r0, r8, r7, r4
 10045cc:	010047a8 	smlatbeq	r0, r8, r7, r4
 10045d0:	010047a8 	smlatbeq	r0, r8, r7, r4
 10045d4:	0100461c 	tsteq	r0, ip, lsl r6
 10045d8:	e5d13000 	ldrb	r3, [r1]
 10045dc:	e20220ff 	and	r2, r2, #255	; 0xff
 10045e0:	ea000002 	b	10045f0 <flash_write_cfiword+0x60>
 10045e4:	e1a02802 	lsl	r2, r2, #16
 10045e8:	e1d130b0 	ldrh	r3, [r1]
 10045ec:	e1a02822 	lsr	r2, r2, #16
 10045f0:	e0033002 	and	r3, r3, r2
 10045f4:	e1530002 	cmp	r3, r2
 10045f8:	13a03000 	movne	r3, #0
 10045fc:	03a03001 	moveq	r3, #1
 1004600:	ea00000d 	b	100463c <flash_write_cfiword+0xac>
 1004604:	e5913000 	ldr	r3, [r1]
 1004608:	e0033002 	and	r3, r3, r2
 100460c:	e1530002 	cmp	r3, r2
 1004610:	13a03000 	movne	r3, #0
 1004614:	03a03001 	moveq	r3, #1
 1004618:	ea000007 	b	100463c <flash_write_cfiword+0xac>
 100461c:	e8910003 	ldm	r1, {r0, r1}
 1004620:	e0000002 	and	r0, r0, r2
 1004624:	e1500002 	cmp	r0, r2
 1004628:	e0011003 	and	r1, r1, r3
 100462c:	1a00005d 	bne	10047a8 <flash_write_cfiword+0x218>
 1004630:	e1510003 	cmp	r1, r3
 1004634:	1a00005b 	bne	10047a8 <flash_write_cfiword+0x218>
 1004638:	ea000001 	b	1004644 <flash_write_cfiword+0xb4>
 100463c:	e3530000 	cmp	r3, #0
 1004640:	0a000058 	beq	10047a8 <flash_write_cfiword+0x218>
 1004644:	ebfff044 	bl	100075c <disable_interrupts>
 1004648:	e3a03e53 	mov	r3, #1328	; 0x530
 100464c:	e19430b3 	ldrh	r3, [r4, r3]
 1004650:	e3530003 	cmp	r3, #3
 1004654:	e1a0b000 	mov	fp, r0
 1004658:	0a00000b 	beq	100468c <flash_write_cfiword+0xfc>
 100465c:	8a000004 	bhi	1004674 <flash_write_cfiword+0xe4>
 1004660:	e3530001 	cmp	r3, #1
 1004664:	0a000008 	beq	100468c <flash_write_cfiword+0xfc>
 1004668:	e3530002 	cmp	r3, #2
 100466c:	1a000004 	bne	1004684 <flash_write_cfiword+0xf4>
 1004670:	ea000012 	b	10046c0 <flash_write_cfiword+0x130>
 1004674:	e3530004 	cmp	r3, #4
 1004678:	0a000010 	beq	10046c0 <flash_write_cfiword+0x130>
 100467c:	e3530c02 	cmp	r3, #512	; 0x200
 1004680:	0a000001 	beq	100468c <flash_write_cfiword+0xfc>
 1004684:	e3a0a000 	mov	sl, #0
 1004688:	ea00000a 	b	10046b8 <flash_write_cfiword+0x128>
 100468c:	e3a01000 	mov	r1, #0
 1004690:	e1a02001 	mov	r2, r1
 1004694:	e3a03050 	mov	r3, #80	; 0x50
 1004698:	e1a00004 	mov	r0, r4
 100469c:	ebfffa84 	bl	10030b4 <flash_write_cmd>
 10046a0:	e3a01000 	mov	r1, #0
 10046a4:	e1a00004 	mov	r0, r4
 10046a8:	e1a02001 	mov	r2, r1
 10046ac:	e3a03040 	mov	r3, #64	; 0x40
 10046b0:	e1a0a001 	mov	sl, r1
 10046b4:	ebfffa7e 	bl	10030b4 <flash_write_cmd>
 10046b8:	e1a0700a 	mov	r7, sl
 10046bc:	ea00000c 	b	10046f4 <flash_write_cfiword+0x164>
 10046c0:	e1a01005 	mov	r1, r5
 10046c4:	e1a00004 	mov	r0, r4
 10046c8:	ebfffb31 	bl	1003394 <find_sector>
 10046cc:	e3a0a001 	mov	sl, #1
 10046d0:	e1a07000 	mov	r7, r0
 10046d4:	e1a01007 	mov	r1, r7
 10046d8:	e1a00004 	mov	r0, r4
 10046dc:	ebfffa9a 	bl	100314c <flash_unlock_seq>
 10046e0:	e1a00004 	mov	r0, r4
 10046e4:	e1a01007 	mov	r1, r7
 10046e8:	e5942544 	ldr	r2, [r4, #1348]	; 0x544
 10046ec:	e3a030a0 	mov	r3, #160	; 0xa0
 10046f0:	ebfffa6f 	bl	10030b4 <flash_write_cmd>
 10046f4:	e5d43520 	ldrb	r3, [r4, #1312]	; 0x520
 10046f8:	e2433001 	sub	r3, r3, #1
 10046fc:	e3530007 	cmp	r3, #7
 1004700:	979ff103 	ldrls	pc, [pc, r3, lsl #2]
 1004704:	ea000018 	b	100476c <flash_write_cfiword+0x1dc>
 1004708:	01004728 	tsteq	r0, r8, lsr #14
 100470c:	01004738 	tsteq	r0, r8, lsr r7
 1004710:	0100476c 	tsteq	r0, ip, ror #14
 1004714:	0100474c 	tsteq	r0, ip, asr #14
 1004718:	0100476c 	tsteq	r0, ip, ror #14
 100471c:	0100476c 	tsteq	r0, ip, ror #14
 1004720:	0100476c 	tsteq	r0, ip, ror #14
 1004724:	0100475c 	tsteq	r0, ip, asr r7
 1004728:	e20600ff 	and	r0, r6, #255	; 0xff
 100472c:	e1a01005 	mov	r1, r5
 1004730:	ebfffa14 	bl	1002f88 <__flash_write8>
 1004734:	ea00000c 	b	100476c <flash_write_cfiword+0x1dc>
 1004738:	e1a00806 	lsl	r0, r6, #16
 100473c:	e1a00820 	lsr	r0, r0, #16
 1004740:	e1a01005 	mov	r1, r5
 1004744:	ebfffa12 	bl	1002f94 <__flash_write16>
 1004748:	ea000007 	b	100476c <flash_write_cfiword+0x1dc>
 100474c:	e1a00006 	mov	r0, r6
 1004750:	e1a01005 	mov	r1, r5
 1004754:	ebfffa12 	bl	1002fa4 <__flash_write32>
 1004758:	ea000003 	b	100476c <flash_write_cfiword+0x1dc>
 100475c:	e1a00006 	mov	r0, r6
 1004760:	e1a01009 	mov	r1, r9
 1004764:	e1a02005 	mov	r2, r5
 1004768:	ebfffa0f 	bl	1002fac <__flash_write64>
 100476c:	e35b0000 	cmp	fp, #0
 1004770:	0a000000 	beq	1004778 <flash_write_cfiword+0x1e8>
 1004774:	ebffeff7 	bl	1000758 <enable_interrupts>
 1004778:	e35a0000 	cmp	sl, #0
 100477c:	1a000003 	bne	1004790 <flash_write_cfiword+0x200>
 1004780:	e1a01005 	mov	r1, r5
 1004784:	e1a00004 	mov	r0, r4
 1004788:	ebfffb01 	bl	1003394 <find_sector>
 100478c:	e1a07000 	mov	r7, r0
 1004790:	e1a00004 	mov	r0, r4
 1004794:	e1a01007 	mov	r1, r7
 1004798:	e5942528 	ldr	r2, [r4, #1320]	; 0x528
 100479c:	e59f300c 	ldr	r3, [pc, #12]	; 10047b0 <flash_write_cfiword+0x220>
 10047a0:	e8bd4ef0 	pop	{r4, r5, r6, r7, r9, sl, fp, lr}
 10047a4:	eafffdf2 	b	1003f74 <flash_full_status_check>
 10047a8:	e3a00002 	mov	r0, #2
 10047ac:	e8bd8ef0 	pop	{r4, r5, r6, r7, r9, sl, fp, pc}
 10047b0:	010118c5 	smlabteq	r1, r5, r8, r1

010047b4 <write_buff>:
 10047b4:	e92d46f3 	push	{r0, r1, r4, r5, r6, r7, r9, sl, lr}
 10047b8:	e5d07520 	ldrb	r7, [r0, #1312]	; 0x520
 10047bc:	e1a04000 	mov	r4, r0
 10047c0:	e2677000 	rsb	r7, r7, #0
 10047c4:	e1d29007 	bics	r9, r2, r7
 10047c8:	13a05000 	movne	r5, #0
 10047cc:	e1a0a001 	mov	sl, r1
 10047d0:	e1a06003 	mov	r6, r3
 10047d4:	e0027007 	and	r7, r2, r7
 10047d8:	158d5000 	strne	r5, [sp]
 10047dc:	1a000003 	bne	10047f0 <write_buff+0x3c>
 10047e0:	ea00003d 	b	10048dc <write_buff+0x128>
 10047e4:	e7d52007 	ldrb	r2, [r5, r7]
 10047e8:	e2855001 	add	r5, r5, #1
 10047ec:	ebfffac0 	bl	10032f4 <flash_add_byte>
 10047f0:	e1550009 	cmp	r5, r9
 10047f4:	e1a00004 	mov	r0, r4
 10047f8:	e1a0100d 	mov	r1, sp
 10047fc:	bafffff8 	blt	10047e4 <write_buff+0x30>
 1004800:	e1a0900a 	mov	r9, sl
 1004804:	ea000003 	b	1004818 <write_buff+0x64>
 1004808:	e5592001 	ldrb	r2, [r9, #-1]
 100480c:	ebfffab8 	bl	10032f4 <flash_add_byte>
 1004810:	e2466001 	sub	r6, r6, #1
 1004814:	e2855001 	add	r5, r5, #1
 1004818:	e5d43520 	ldrb	r3, [r4, #1312]	; 0x520
 100481c:	e1a0a009 	mov	sl, r9
 1004820:	e3560000 	cmp	r6, #0
 1004824:	11550003 	cmpne	r5, r3
 1004828:	e1a00004 	mov	r0, r4
 100482c:	e1a0100d 	mov	r1, sp
 1004830:	e2899001 	add	r9, r9, #1
 1004834:	bafffff3 	blt	1004808 <write_buff+0x54>
 1004838:	e3560000 	cmp	r6, #0
 100483c:	00859007 	addeq	r9, r5, r7
 1004840:	1a000008 	bne	1004868 <write_buff+0xb4>
 1004844:	ea000002 	b	1004854 <write_buff+0xa0>
 1004848:	e4d92001 	ldrb	r2, [r9], #1
 100484c:	e2855001 	add	r5, r5, #1
 1004850:	ebfffaa7 	bl	10032f4 <flash_add_byte>
 1004854:	e5d43520 	ldrb	r3, [r4, #1312]	; 0x520
 1004858:	e1a00004 	mov	r0, r4
 100485c:	e1550003 	cmp	r5, r3
 1004860:	e1a0100d 	mov	r1, sp
 1004864:	bafffff7 	blt	1004848 <write_buff+0x94>
 1004868:	e1a01007 	mov	r1, r7
 100486c:	e1a00004 	mov	r0, r4
 1004870:	e89d000c 	ldm	sp, {r2, r3}
 1004874:	ebffff45 	bl	1004590 <flash_write_cfiword>
 1004878:	e3500000 	cmp	r0, #0
 100487c:	00877005 	addeq	r7, r7, r5
 1004880:	0a000015 	beq	10048dc <write_buff+0x128>
 1004884:	ea000033 	b	1004958 <write_buff+0x1a4>
 1004888:	e3a05000 	mov	r5, #0
 100488c:	e58d5000 	str	r5, [sp]
 1004890:	ea000002 	b	10048a0 <write_buff+0xec>
 1004894:	e7da2005 	ldrb	r2, [sl, r5]
 1004898:	ebfffa95 	bl	10032f4 <flash_add_byte>
 100489c:	e2855001 	add	r5, r5, #1
 10048a0:	e5d43520 	ldrb	r3, [r4, #1312]	; 0x520
 10048a4:	e1a00004 	mov	r0, r4
 10048a8:	e1550003 	cmp	r5, r3
 10048ac:	e1a0100d 	mov	r1, sp
 10048b0:	e085900a 	add	r9, r5, sl
 10048b4:	bafffff6 	blt	1004894 <write_buff+0xe0>
 10048b8:	e1a01007 	mov	r1, r7
 10048bc:	e89d000c 	ldm	sp, {r2, r3}
 10048c0:	ebffff32 	bl	1004590 <flash_write_cfiword>
 10048c4:	e3500000 	cmp	r0, #0
 10048c8:	1a000022 	bne	1004958 <write_buff+0x1a4>
 10048cc:	e5d43520 	ldrb	r3, [r4, #1312]	; 0x520
 10048d0:	e1a0a009 	mov	sl, r9
 10048d4:	e0636006 	rsb	r6, r3, r6
 10048d8:	e0877003 	add	r7, r7, r3
 10048dc:	e5d43520 	ldrb	r3, [r4, #1312]	; 0x520
 10048e0:	e1560003 	cmp	r6, r3
 10048e4:	2affffe7 	bcs	1004888 <write_buff+0xd4>
 10048e8:	e3560000 	cmp	r6, #0
 10048ec:	13a05000 	movne	r5, #0
 10048f0:	01a00006 	moveq	r0, r6
 10048f4:	158d5000 	strne	r5, [sp]
 10048f8:	1a000003 	bne	100490c <write_buff+0x158>
 10048fc:	ea000015 	b	1004958 <write_buff+0x1a4>
 1004900:	e7da2005 	ldrb	r2, [sl, r5]
 1004904:	ebfffa7a 	bl	10032f4 <flash_add_byte>
 1004908:	e2855001 	add	r5, r5, #1
 100490c:	e5d43520 	ldrb	r3, [r4, #1312]	; 0x520
 1004910:	e1a00004 	mov	r0, r4
 1004914:	e1560005 	cmp	r6, r5
 1004918:	11550003 	cmpne	r5, r3
 100491c:	e1a0100d 	mov	r1, sp
 1004920:	bafffff6 	blt	1004900 <write_buff+0x14c>
 1004924:	e0856007 	add	r6, r5, r7
 1004928:	ea000001 	b	1004934 <write_buff+0x180>
 100492c:	e4d62001 	ldrb	r2, [r6], #1
 1004930:	ebfffa6f 	bl	10032f4 <flash_add_byte>
 1004934:	e5d43520 	ldrb	r3, [r4, #1312]	; 0x520
 1004938:	e1a00004 	mov	r0, r4
 100493c:	e1550003 	cmp	r5, r3
 1004940:	e1a0100d 	mov	r1, sp
 1004944:	e2855001 	add	r5, r5, #1
 1004948:	bafffff7 	blt	100492c <write_buff+0x178>
 100494c:	e1a01007 	mov	r1, r7
 1004950:	e89d000c 	ldm	sp, {r2, r3}
 1004954:	ebffff0d 	bl	1004590 <flash_write_cfiword>
 1004958:	e8bd86fc 	pop	{r2, r3, r4, r5, r6, r7, r9, sl, pc}

0100495c <flash_erase>:
 100495c:	e92d44f0 	push	{r4, r5, r6, r7, sl, lr}
 1004960:	e5903008 	ldr	r3, [r0, #8]
 1004964:	e1a05000 	mov	r5, r0
 1004968:	e3530401 	cmp	r3, #16777216	; 0x1000000
 100496c:	e1a0a002 	mov	sl, r2
 1004970:	159f01bc 	ldrne	r0, [pc, #444]	; 1004b34 <flash_erase+0x1d8>
 1004974:	1a000005 	bne	1004990 <flash_erase+0x34>
 1004978:	e1a03fa1 	lsr	r3, r1, #31
 100497c:	e1510002 	cmp	r1, r2
 1004980:	c3833001 	orrgt	r3, r3, #1
 1004984:	e3530000 	cmp	r3, #0
 1004988:	0a000003 	beq	100499c <flash_erase+0x40>
 100498c:	e59f01a4 	ldr	r0, [pc, #420]	; 1004b38 <flash_erase+0x1dc>
 1004990:	eb0010f3 	bl	1008d64 <puts>
 1004994:	e3a07001 	mov	r7, #1
 1004998:	ea000063 	b	1004b2c <flash_erase+0x1d0>
 100499c:	e2816e41 	add	r6, r1, #1040	; 0x410
 10049a0:	e286600c 	add	r6, r6, #12
 10049a4:	e1a04001 	mov	r4, r1
 10049a8:	e0856006 	add	r6, r5, r6
 10049ac:	e1a01003 	mov	r1, r3
 10049b0:	e1a02006 	mov	r2, r6
 10049b4:	e1a03004 	mov	r3, r4
 10049b8:	ea000003 	b	10049cc <flash_erase+0x70>
 10049bc:	e5d20000 	ldrb	r0, [r2]
 10049c0:	e2822001 	add	r2, r2, #1
 10049c4:	e3500000 	cmp	r0, #0
 10049c8:	12811001 	addne	r1, r1, #1
 10049cc:	e153000a 	cmp	r3, sl
 10049d0:	e2833001 	add	r3, r3, #1
 10049d4:	9afffff8 	bls	10049bc <flash_erase+0x60>
 10049d8:	e3510000 	cmp	r1, #0
 10049dc:	0a000002 	beq	10049ec <flash_erase+0x90>
 10049e0:	e59f0154 	ldr	r0, [pc, #340]	; 1004b3c <flash_erase+0x1e0>
 10049e4:	eb0010f0 	bl	1008dac <printf>
 10049e8:	ea000005 	b	1004a04 <flash_erase+0xa8>
 10049ec:	e59f314c 	ldr	r3, [pc, #332]	; 1004b40 <flash_erase+0x1e4>
 10049f0:	e5933000 	ldr	r3, [r3]
 10049f4:	e3530000 	cmp	r3, #0
 10049f8:	0a000001 	beq	1004a04 <flash_erase+0xa8>
 10049fc:	e3a0000a 	mov	r0, #10
 1004a00:	eb00116b 	bl	1008fb4 <putc>
 1004a04:	e3a07000 	mov	r7, #0
 1004a08:	ea00003f 	b	1004b0c <flash_erase+0x1b0>
 1004a0c:	e5d63000 	ldrb	r3, [r6]
 1004a10:	e3530000 	cmp	r3, #0
 1004a14:	1a00003a 	bne	1004b04 <flash_erase+0x1a8>
 1004a18:	e2833e53 	add	r3, r3, #1328	; 0x530
 1004a1c:	e19530b3 	ldrh	r3, [r5, r3]
 1004a20:	e3530003 	cmp	r3, #3
 1004a24:	0a000009 	beq	1004a50 <flash_erase+0xf4>
 1004a28:	8a000004 	bhi	1004a40 <flash_erase+0xe4>
 1004a2c:	e3530001 	cmp	r3, #1
 1004a30:	0a000006 	beq	1004a50 <flash_erase+0xf4>
 1004a34:	e3530002 	cmp	r3, #2
 1004a38:	1a000023 	bne	1004acc <flash_erase+0x170>
 1004a3c:	ea000012 	b	1004a8c <flash_erase+0x130>
 1004a40:	e3530004 	cmp	r3, #4
 1004a44:	0a000010 	beq	1004a8c <flash_erase+0x130>
 1004a48:	e3530c02 	cmp	r3, #512	; 0x200
 1004a4c:	1a00001e 	bne	1004acc <flash_erase+0x170>
 1004a50:	e1a00005 	mov	r0, r5
 1004a54:	e1a01004 	mov	r1, r4
 1004a58:	e3a02000 	mov	r2, #0
 1004a5c:	e3a03050 	mov	r3, #80	; 0x50
 1004a60:	ebfff993 	bl	10030b4 <flash_write_cmd>
 1004a64:	e1a00005 	mov	r0, r5
 1004a68:	e1a01004 	mov	r1, r4
 1004a6c:	e3a02000 	mov	r2, #0
 1004a70:	e3a03020 	mov	r3, #32
 1004a74:	ebfff98e 	bl	10030b4 <flash_write_cmd>
 1004a78:	e1a00005 	mov	r0, r5
 1004a7c:	e1a01004 	mov	r1, r4
 1004a80:	e3a02000 	mov	r2, #0
 1004a84:	e3a030d0 	mov	r3, #208	; 0xd0
 1004a88:	ea00000e 	b	1004ac8 <flash_erase+0x16c>
 1004a8c:	e1a00005 	mov	r0, r5
 1004a90:	e1a01004 	mov	r1, r4
 1004a94:	ebfff9ac 	bl	100314c <flash_unlock_seq>
 1004a98:	e5952544 	ldr	r2, [r5, #1348]	; 0x544
 1004a9c:	e3a03080 	mov	r3, #128	; 0x80
 1004aa0:	e1a00005 	mov	r0, r5
 1004aa4:	e1a01004 	mov	r1, r4
 1004aa8:	ebfff981 	bl	10030b4 <flash_write_cmd>
 1004aac:	e1a00005 	mov	r0, r5
 1004ab0:	e1a01004 	mov	r1, r4
 1004ab4:	ebfff9a4 	bl	100314c <flash_unlock_seq>
 1004ab8:	e1a00005 	mov	r0, r5
 1004abc:	e1a01004 	mov	r1, r4
 1004ac0:	e3a02000 	mov	r2, #0
 1004ac4:	e3a03030 	mov	r3, #48	; 0x30
 1004ac8:	ebfff979 	bl	10030b4 <flash_write_cmd>
 1004acc:	e1a00005 	mov	r0, r5
 1004ad0:	e1a01004 	mov	r1, r4
 1004ad4:	e5952524 	ldr	r2, [r5, #1316]	; 0x524
 1004ad8:	e59f3064 	ldr	r3, [pc, #100]	; 1004b44 <flash_erase+0x1e8>
 1004adc:	ebfffd24 	bl	1003f74 <flash_full_status_check>
 1004ae0:	e3500000 	cmp	r0, #0
 1004ae4:	13a07001 	movne	r7, #1
 1004ae8:	1a000005 	bne	1004b04 <flash_erase+0x1a8>
 1004aec:	e59f304c 	ldr	r3, [pc, #76]	; 1004b40 <flash_erase+0x1e4>
 1004af0:	e5933000 	ldr	r3, [r3]
 1004af4:	e3530000 	cmp	r3, #0
 1004af8:	0a000001 	beq	1004b04 <flash_erase+0x1a8>
 1004afc:	e3a0002e 	mov	r0, #46	; 0x2e
 1004b00:	eb00112b 	bl	1008fb4 <putc>
 1004b04:	e2844001 	add	r4, r4, #1
 1004b08:	e2866001 	add	r6, r6, #1
 1004b0c:	e154000a 	cmp	r4, sl
 1004b10:	9affffbd 	bls	1004a0c <flash_erase+0xb0>
 1004b14:	e59f3024 	ldr	r3, [pc, #36]	; 1004b40 <flash_erase+0x1e4>
 1004b18:	e5933000 	ldr	r3, [r3]
 1004b1c:	e3530000 	cmp	r3, #0
 1004b20:	0a000001 	beq	1004b2c <flash_erase+0x1d0>
 1004b24:	e59f001c 	ldr	r0, [pc, #28]	; 1004b48 <flash_erase+0x1ec>
 1004b28:	eb00108d 	bl	1008d64 <puts>
 1004b2c:	e1a00007 	mov	r0, r7
 1004b30:	e8bd84f0 	pop	{r4, r5, r6, r7, sl, pc}
 1004b34:	010118cb 	smlabteq	r1, fp, r8, r1
 1004b38:	010118f5 	strdeq	r1, [r1, -r5]
 1004b3c:	0101190c 	tsteq	r1, ip, lsl #18
 1004b40:	010143f0 	strdeq	r4, [r1, -r0]
 1004b44:	01011941 	tsteq	r1, r1, asr #18
 1004b48:	01011947 	tsteq	r1, r7, asr #18

01004b4c <smc_set_mac_addr>:
 1004b4c:	e3a03000 	mov	r3, #0
 1004b50:	e59f2014 	ldr	r2, [pc, #20]	; 1004b6c <smc_set_mac_addr+0x20>
 1004b54:	e7d01003 	ldrb	r1, [r0, r3]
 1004b58:	e7c21003 	strb	r1, [r2, r3]
 1004b5c:	e2833001 	add	r3, r3, #1
 1004b60:	e3530006 	cmp	r3, #6
 1004b64:	1afffff9 	bne	1004b50 <smc_set_mac_addr+0x4>
 1004b68:	e12fff1e 	bx	lr
 1004b6c:	010143f4 	strdeq	r4, [r1, -r4]

01004b70 <dump_memory_info>:
 1004b70:	e59f3018 	ldr	r3, [pc, #24]	; 1004b90 <dump_memory_info+0x20>
 1004b74:	e3a01000 	mov	r1, #0
 1004b78:	e1d320be 	ldrh	r2, [r3, #14]
 1004b7c:	e1c310be 	strh	r1, [r3, #14]
 1004b80:	e202200f 	and	r2, r2, #15
 1004b84:	e1d310b8 	ldrh	r1, [r3, #8]
 1004b88:	e1c320be 	strh	r2, [r3, #14]
 1004b8c:	e12fff1e 	bx	lr
 1004b90:	10010000 	andne	r0, r1, r0

01004b94 <smc_destructor>:
 1004b94:	e12fff1e 	bx	lr

01004b98 <eth_halt>:
 1004b98:	e59f3040 	ldr	r3, [pc, #64]	; 1004be0 <eth_halt+0x48>
 1004b9c:	e3a02002 	mov	r2, #2
 1004ba0:	e1c320be 	strh	r2, [r3, #14]
 1004ba4:	e1d320bc 	ldrh	r2, [r3, #12]
 1004ba8:	e20220ff 	and	r2, r2, #255	; 0xff
 1004bac:	e1c320bc 	strh	r2, [r3, #12]
 1004bb0:	e1d320bc 	ldrh	r2, [r3, #12]
 1004bb4:	e3a02000 	mov	r2, #0
 1004bb8:	e1c320be 	strh	r2, [r3, #14]
 1004bbc:	e1d320b4 	ldrh	r2, [r3, #4]
 1004bc0:	e2022cff 	and	r2, r2, #65280	; 0xff00
 1004bc4:	e1c320b4 	strh	r2, [r3, #4]
 1004bc8:	e1d320b4 	ldrh	r2, [r3, #4]
 1004bcc:	e1d320b0 	ldrh	r2, [r3]
 1004bd0:	e2022cff 	and	r2, r2, #65280	; 0xff00
 1004bd4:	e1c320b0 	strh	r2, [r3]
 1004bd8:	e1d330b0 	ldrh	r3, [r3]
 1004bdc:	e12fff1e 	bx	lr
 1004be0:	10010000 	andne	r0, r1, r0

01004be4 <get_rom_mac>:
 1004be4:	e59f205c 	ldr	r2, [pc, #92]	; 1004c48 <get_rom_mac+0x64>
 1004be8:	e3a03000 	mov	r3, #0
 1004bec:	e3a01001 	mov	r1, #1
 1004bf0:	e92d4010 	push	{r4, lr}
 1004bf4:	e1c210be 	strh	r1, [r2, #14]
 1004bf8:	e1a02003 	mov	r2, r3
 1004bfc:	e2824004 	add	r4, r2, #4
 1004c00:	e3c4c001 	bic	ip, r4, #1
 1004c04:	e2821241 	add	r1, r2, #268435460	; 0x10000004
 1004c08:	e28cc201 	add	ip, ip, #268435456	; 0x10000000
 1004c0c:	e2811801 	add	r1, r1, #65536	; 0x10000
 1004c10:	e3140001 	tst	r4, #1
 1004c14:	e28cc801 	add	ip, ip, #65536	; 0x10000
 1004c18:	11dc10b0 	ldrhne	r1, [ip]
 1004c1c:	01d110b0 	ldrheq	r1, [r1]
 1004c20:	11a01421 	lsrne	r1, r1, #8
 1004c24:	020110ff 	andeq	r1, r1, #255	; 0xff
 1004c28:	e7c01002 	strb	r1, [r0, r2]
 1004c2c:	e2822001 	add	r2, r2, #1
 1004c30:	e3520006 	cmp	r2, #6
 1004c34:	e1833001 	orr	r3, r3, r1
 1004c38:	1affffef 	bne	1004bfc <get_rom_mac+0x18>
 1004c3c:	e2530000 	subs	r0, r3, #0
 1004c40:	13a00001 	movne	r0, #1
 1004c44:	e8bd8010 	pop	{r4, pc}
 1004c48:	10010000 	andne	r0, r1, r0

01004c4c <smc_get_ethaddr>:
 1004c4c:	e92d4ef0 	push	{r4, r5, r6, r7, r9, sl, fp, lr}
 1004c50:	e24dd064 	sub	sp, sp, #100	; 0x64
 1004c54:	e28d5010 	add	r5, sp, #16
 1004c58:	e1a0b000 	mov	fp, r0
 1004c5c:	e1a01005 	mov	r1, r5
 1004c60:	e59f01bc 	ldr	r0, [pc, #444]	; 1004e24 <smc_get_ethaddr+0x1d8>
 1004c64:	e3a02040 	mov	r2, #64	; 0x40
 1004c68:	eb000cf3 	bl	100803c <getenv_r>
 1004c6c:	e2403001 	sub	r3, r0, #1
 1004c70:	e3530010 	cmp	r3, #16
 1004c74:	959f01ac 	ldrls	r0, [pc, #428]	; 1004e28 <smc_get_ethaddr+0x1dc>
 1004c78:	9a000032 	bls	1004d48 <smc_get_ethaddr+0xfc>
 1004c7c:	e3500000 	cmp	r0, #0
 1004c80:	d3a05000 	movle	r5, #0
 1004c84:	c3a04001 	movgt	r4, #1
 1004c88:	d1a04005 	movle	r4, r5
 1004c8c:	e3a06000 	mov	r6, #0
 1004c90:	e3550000 	cmp	r5, #0
 1004c94:	e1a00005 	mov	r0, r5
 1004c98:	e28d1060 	add	r1, sp, #96	; 0x60
 1004c9c:	e3a02010 	mov	r2, #16
 1004ca0:	0a000001 	beq	1004cac <smc_get_ethaddr+0x60>
 1004ca4:	eb001fb6 	bl	100cb84 <simple_strtoul>
 1004ca8:	e20000ff 	and	r0, r0, #255	; 0xff
 1004cac:	e28d3058 	add	r3, sp, #88	; 0x58
 1004cb0:	e3550000 	cmp	r5, #0
 1004cb4:	e7c30006 	strb	r0, [r3, r6]
 1004cb8:	e2866001 	add	r6, r6, #1
 1004cbc:	0a000003 	beq	1004cd0 <smc_get_ethaddr+0x84>
 1004cc0:	e59d5060 	ldr	r5, [sp, #96]	; 0x60
 1004cc4:	e5d53000 	ldrb	r3, [r5]
 1004cc8:	e3530000 	cmp	r3, #0
 1004ccc:	12855001 	addne	r5, r5, #1
 1004cd0:	e3560006 	cmp	r6, #6
 1004cd4:	1affffed 	bne	1004c90 <smc_get_ethaddr+0x44>
 1004cd8:	e28d5050 	add	r5, sp, #80	; 0x50
 1004cdc:	e1a00005 	mov	r0, r5
 1004ce0:	ebffffbf 	bl	1004be4 <get_rom_mac>
 1004ce4:	e3540000 	cmp	r4, #0
 1004ce8:	128d5058 	addne	r5, sp, #88	; 0x58
 1004cec:	e1a07000 	mov	r7, r0
 1004cf0:	1a000017 	bne	1004d54 <smc_get_ethaddr+0x108>
 1004cf4:	e3500000 	cmp	r0, #0
 1004cf8:	0a000011 	beq	1004d44 <smc_get_ethaddr+0xf8>
 1004cfc:	e28d6010 	add	r6, sp, #16
 1004d00:	e5dde052 	ldrb	lr, [sp, #82]	; 0x52
 1004d04:	e5dda053 	ldrb	sl, [sp, #83]	; 0x53
 1004d08:	e5dd9054 	ldrb	r9, [sp, #84]	; 0x54
 1004d0c:	e5ddc055 	ldrb	ip, [sp, #85]	; 0x55
 1004d10:	e5dd2050 	ldrb	r2, [sp, #80]	; 0x50
 1004d14:	e5dd3051 	ldrb	r3, [sp, #81]	; 0x51
 1004d18:	e59f110c 	ldr	r1, [pc, #268]	; 1004e2c <smc_get_ethaddr+0x1e0>
 1004d1c:	e1a00006 	mov	r0, r6
 1004d20:	e58de000 	str	lr, [sp]
 1004d24:	e58da004 	str	sl, [sp, #4]
 1004d28:	e58d9008 	str	r9, [sp, #8]
 1004d2c:	e58dc00c 	str	ip, [sp, #12]
 1004d30:	eb0021a2 	bl	100d3c0 <sprintf>
 1004d34:	e1a01006 	mov	r1, r6
 1004d38:	e59f00e4 	ldr	r0, [pc, #228]	; 1004e24 <smc_get_ethaddr+0x1d8>
 1004d3c:	eb000e34 	bl	1008614 <setenv>
 1004d40:	ea000003 	b	1004d54 <smc_get_ethaddr+0x108>
 1004d44:	e59f00e4 	ldr	r0, [pc, #228]	; 1004e30 <smc_get_ethaddr+0x1e4>
 1004d48:	eb001017 	bl	1008dac <printf>
 1004d4c:	e3e00000 	mvn	r0, #0
 1004d50:	ea000031 	b	1004e1c <smc_get_ethaddr+0x1d0>
 1004d54:	e3570000 	cmp	r7, #0
 1004d58:	03a04000 	moveq	r4, #0
 1004d5c:	12044001 	andne	r4, r4, #1
 1004d60:	e3540000 	cmp	r4, #0
 1004d64:	0a00001b 	beq	1004dd8 <smc_get_ethaddr+0x18c>
 1004d68:	e28d0058 	add	r0, sp, #88	; 0x58
 1004d6c:	e28d1050 	add	r1, sp, #80	; 0x50
 1004d70:	e3a02006 	mov	r2, #6
 1004d74:	eb001f38 	bl	100ca5c <memcmp>
 1004d78:	e3500000 	cmp	r0, #0
 1004d7c:	0a000015 	beq	1004dd8 <smc_get_ethaddr+0x18c>
 1004d80:	e59f00ac 	ldr	r0, [pc, #172]	; 1004e34 <smc_get_ethaddr+0x1e8>
 1004d84:	eb001008 	bl	1008dac <printf>
 1004d88:	e5dd4053 	ldrb	r4, [sp, #83]	; 0x53
 1004d8c:	e5dde054 	ldrb	lr, [sp, #84]	; 0x54
 1004d90:	e5ddc055 	ldrb	ip, [sp, #85]	; 0x55
 1004d94:	e5dd1050 	ldrb	r1, [sp, #80]	; 0x50
 1004d98:	e5dd2051 	ldrb	r2, [sp, #81]	; 0x51
 1004d9c:	e5dd3052 	ldrb	r3, [sp, #82]	; 0x52
 1004da0:	e59f0090 	ldr	r0, [pc, #144]	; 1004e38 <smc_get_ethaddr+0x1ec>
 1004da4:	e88d4010 	stm	sp, {r4, lr}
 1004da8:	e58dc008 	str	ip, [sp, #8]
 1004dac:	eb000ffe 	bl	1008dac <printf>
 1004db0:	e5dd405b 	ldrb	r4, [sp, #91]	; 0x5b
 1004db4:	e5dde05c 	ldrb	lr, [sp, #92]	; 0x5c
 1004db8:	e5ddc05d 	ldrb	ip, [sp, #93]	; 0x5d
 1004dbc:	e5dd1058 	ldrb	r1, [sp, #88]	; 0x58
 1004dc0:	e5dd2059 	ldrb	r2, [sp, #89]	; 0x59
 1004dc4:	e5dd305a 	ldrb	r3, [sp, #90]	; 0x5a
 1004dc8:	e59f006c 	ldr	r0, [pc, #108]	; 1004e3c <smc_get_ethaddr+0x1f0>
 1004dcc:	e88d4010 	stm	sp, {r4, lr}
 1004dd0:	e58dc008 	str	ip, [sp, #8]
 1004dd4:	eb000ff4 	bl	1008dac <printf>
 1004dd8:	e1a01005 	mov	r1, r5
 1004ddc:	e3a02006 	mov	r2, #6
 1004de0:	e28b0008 	add	r0, fp, #8
 1004de4:	eb001efc 	bl	100c9dc <memcpy>
 1004de8:	e1a00005 	mov	r0, r5
 1004dec:	ebffff56 	bl	1004b4c <smc_set_mac_addr>
 1004df0:	e5d51000 	ldrb	r1, [r5]
 1004df4:	e5d52001 	ldrb	r2, [r5, #1]
 1004df8:	e5d53002 	ldrb	r3, [r5, #2]
 1004dfc:	e5d5c005 	ldrb	ip, [r5, #5]
 1004e00:	e5d54003 	ldrb	r4, [r5, #3]
 1004e04:	e5d5e004 	ldrb	lr, [r5, #4]
 1004e08:	e59f0030 	ldr	r0, [pc, #48]	; 1004e40 <smc_get_ethaddr+0x1f4>
 1004e0c:	e88d4010 	stm	sp, {r4, lr}
 1004e10:	e58dc008 	str	ip, [sp, #8]
 1004e14:	eb000fe4 	bl	1008dac <printf>
 1004e18:	e3a00000 	mov	r0, #0
 1004e1c:	e28dd064 	add	sp, sp, #100	; 0x64
 1004e20:	e8bd8ef0 	pop	{r4, r5, r6, r7, r9, sl, fp, pc}
 1004e24:	01010ec8 	smlabteq	r1, r8, lr, r0
 1004e28:	0101194e 	tsteq	r1, lr, asr #18
 1004e2c:	01011979 	tsteq	r1, r9, ror r9
 1004e30:	01011997 	tsteq	r1, r7, lsl r9
 1004e34:	010119ba 	strheq	r1, [r1, -sl]
 1004e38:	010119e0 	smlatteq	r1, r0, r9, r1
 1004e3c:	01011a11 	tsteq	r1, r1, lsl sl
 1004e40:	01011a42 	tsteq	r1, r2, asr #20

01004e44 <smc_read_phy_register>:
 1004e44:	e92d4ef0 	push	{r4, r5, r6, r7, r9, sl, fp, lr}
 1004e48:	e20000ff 	and	r0, r0, #255	; 0xff
 1004e4c:	e24dd040 	sub	sp, sp, #64	; 0x40
 1004e50:	e3a03000 	mov	r3, #0
 1004e54:	e3a0c009 	mov	ip, #9
 1004e58:	e7cdc003 	strb	ip, [sp, r3]
 1004e5c:	e2833001 	add	r3, r3, #1
 1004e60:	e3530020 	cmp	r3, #32
 1004e64:	e1a0100d 	mov	r1, sp
 1004e68:	1afffff9 	bne	1004e54 <smc_read_phy_register+0x10>
 1004e6c:	e3a03008 	mov	r3, #8
 1004e70:	e3a0202a 	mov	r2, #42	; 0x2a
 1004e74:	e3a0e010 	mov	lr, #16
 1004e78:	e5cdc022 	strb	ip, [sp, #34]	; 0x22
 1004e7c:	e5cd3028 	strb	r3, [sp, #40]	; 0x28
 1004e80:	e5cd3020 	strb	r3, [sp, #32]
 1004e84:	e5cdc021 	strb	ip, [sp, #33]	; 0x21
 1004e88:	e5cd3023 	strb	r3, [sp, #35]	; 0x23
 1004e8c:	e5cd3024 	strb	r3, [sp, #36]	; 0x24
 1004e90:	e5cd3025 	strb	r3, [sp, #37]	; 0x25
 1004e94:	e5cd3026 	strb	r3, [sp, #38]	; 0x26
 1004e98:	e5cd3027 	strb	r3, [sp, #39]	; 0x27
 1004e9c:	e11e0000 	tst	lr, r0
 1004ea0:	e2822001 	add	r2, r2, #1
 1004ea4:	13a03009 	movne	r3, #9
 1004ea8:	03a03008 	moveq	r3, #8
 1004eac:	e352002f 	cmp	r2, #47	; 0x2f
 1004eb0:	e5c13029 	strb	r3, [r1, #41]	; 0x29
 1004eb4:	e1a0e0ae 	lsr	lr, lr, #1
 1004eb8:	e2811001 	add	r1, r1, #1
 1004ebc:	1afffff6 	bne	1004e9c <smc_read_phy_register+0x58>
 1004ec0:	e1a03002 	mov	r3, r2
 1004ec4:	e3a02000 	mov	r2, #0
 1004ec8:	e5cd202e 	strb	r2, [sp, #46]	; 0x2e
 1004ecc:	e3a05000 	mov	r5, #0
 1004ed0:	e7cd5003 	strb	r5, [sp, r3]
 1004ed4:	e2833001 	add	r3, r3, #1
 1004ed8:	e353003f 	cmp	r3, #63	; 0x3f
 1004edc:	1afffffa 	bne	1004ecc <smc_read_phy_register+0x88>
 1004ee0:	e59f30a0 	ldr	r3, [pc, #160]	; 1004f88 <smc_read_phy_register+0x144>
 1004ee4:	e3a02003 	mov	r2, #3
 1004ee8:	e5cd503f 	strb	r5, [sp, #63]	; 0x3f
 1004eec:	e59f6098 	ldr	r6, [pc, #152]	; 1004f8c <smc_read_phy_register+0x148>
 1004ef0:	e1d3b0be 	ldrh	fp, [r3, #14]
 1004ef4:	e1c320be 	strh	r2, [r3, #14]
 1004ef8:	e1d330b8 	ldrh	r3, [r3, #8]
 1004efc:	e0036006 	and	r6, r3, r6
 1004f00:	e7dda005 	ldrb	sl, [sp, r5]
 1004f04:	e59f407c 	ldr	r4, [pc, #124]	; 1004f88 <smc_read_phy_register+0x144>
 1004f08:	e18a9006 	orr	r9, sl, r6
 1004f0c:	e3a00ffa 	mov	r0, #1000	; 0x3e8
 1004f10:	e1c490b8 	strh	r9, [r4, #8]
 1004f14:	e3899004 	orr	r9, r9, #4
 1004f18:	eb001af8 	bl	100bb00 <udelay>
 1004f1c:	e3a00ffa 	mov	r0, #1000	; 0x3e8
 1004f20:	e1c490b8 	strh	r9, [r4, #8]
 1004f24:	eb001af5 	bl	100bb00 <udelay>
 1004f28:	e1d430b8 	ldrh	r3, [r4, #8]
 1004f2c:	e1a0700d 	mov	r7, sp
 1004f30:	e2033002 	and	r3, r3, #2
 1004f34:	e183a00a 	orr	sl, r3, sl
 1004f38:	e7cda005 	strb	sl, [sp, r5]
 1004f3c:	e2855001 	add	r5, r5, #1
 1004f40:	e3550040 	cmp	r5, #64	; 0x40
 1004f44:	1affffed 	bne	1004f00 <smc_read_phy_register+0xbc>
 1004f48:	e3a00ffa 	mov	r0, #1000	; 0x3e8
 1004f4c:	e1c460b8 	strh	r6, [r4, #8]
 1004f50:	eb001aea 	bl	100bb00 <udelay>
 1004f54:	e3a00000 	mov	r0, #0
 1004f58:	e3a0302f 	mov	r3, #47	; 0x2f
 1004f5c:	e1c4b0be 	strh	fp, [r4, #14]
 1004f60:	e7dd2003 	ldrb	r2, [sp, r3]
 1004f64:	e1a00880 	lsl	r0, r0, #17
 1004f68:	e3120002 	tst	r2, #2
 1004f6c:	e1a00820 	lsr	r0, r0, #16
 1004f70:	e2833001 	add	r3, r3, #1
 1004f74:	13800001 	orrne	r0, r0, #1
 1004f78:	e353003f 	cmp	r3, #63	; 0x3f
 1004f7c:	1afffff7 	bne	1004f60 <smc_read_phy_register+0x11c>
 1004f80:	e28dd040 	add	sp, sp, #64	; 0x40
 1004f84:	e8bd8ef0 	pop	{r4, r5, r6, r7, r9, sl, fp, pc}
 1004f88:	10010000 	andne	r0, r1, r0
 1004f8c:	0000fff0 	strdeq	pc, [r0], -r0

01004f90 <smc_write_phy_register>:
 1004f90:	e1a01801 	lsl	r1, r1, #16
 1004f94:	e92d4ef0 	push	{r4, r5, r6, r7, r9, sl, fp, lr}
 1004f98:	e20000ff 	and	r0, r0, #255	; 0xff
 1004f9c:	e24dd044 	sub	sp, sp, #68	; 0x44
 1004fa0:	e1a01821 	lsr	r1, r1, #16
 1004fa4:	e3a03000 	mov	r3, #0
 1004fa8:	e3a0e009 	mov	lr, #9
 1004fac:	e7cde003 	strb	lr, [sp, r3]
 1004fb0:	e2833001 	add	r3, r3, #1
 1004fb4:	e3530020 	cmp	r3, #32
 1004fb8:	e1a0200d 	mov	r2, sp
 1004fbc:	1afffff9 	bne	1004fa8 <smc_write_phy_register+0x18>
 1004fc0:	e3a03008 	mov	r3, #8
 1004fc4:	e1a0c00d 	mov	ip, sp
 1004fc8:	e3a0502a 	mov	r5, #42	; 0x2a
 1004fcc:	e3a04010 	mov	r4, #16
 1004fd0:	e5cde023 	strb	lr, [sp, #35]	; 0x23
 1004fd4:	e5cd3028 	strb	r3, [sp, #40]	; 0x28
 1004fd8:	e5cd3020 	strb	r3, [sp, #32]
 1004fdc:	e5cde021 	strb	lr, [sp, #33]	; 0x21
 1004fe0:	e5cd3022 	strb	r3, [sp, #34]	; 0x22
 1004fe4:	e5cd3024 	strb	r3, [sp, #36]	; 0x24
 1004fe8:	e5cd3025 	strb	r3, [sp, #37]	; 0x25
 1004fec:	e5cd3026 	strb	r3, [sp, #38]	; 0x26
 1004ff0:	e5cd3027 	strb	r3, [sp, #39]	; 0x27
 1004ff4:	e1140000 	tst	r4, r0
 1004ff8:	e2855001 	add	r5, r5, #1
 1004ffc:	13a03009 	movne	r3, #9
 1005000:	03a03008 	moveq	r3, #8
 1005004:	e355002f 	cmp	r5, #47	; 0x2f
 1005008:	e5cc3029 	strb	r3, [ip, #41]	; 0x29
 100500c:	e1a040a4 	lsr	r4, r4, #1
 1005010:	e28cc001 	add	ip, ip, #1
 1005014:	1afffff6 	bne	1004ff4 <smc_write_phy_register+0x64>
 1005018:	e3a0c000 	mov	ip, #0
 100501c:	e3a00031 	mov	r0, #49	; 0x31
 1005020:	e3a03902 	mov	r3, #32768	; 0x8000
 1005024:	e5cdc02f 	strb	ip, [sp, #47]	; 0x2f
 1005028:	e5cdc02e 	strb	ip, [sp, #46]	; 0x2e
 100502c:	e1130001 	tst	r3, r1
 1005030:	e2800001 	add	r0, r0, #1
 1005034:	13a0c009 	movne	ip, #9
 1005038:	03a0c008 	moveq	ip, #8
 100503c:	e3500041 	cmp	r0, #65	; 0x41
 1005040:	e5c2c030 	strb	ip, [r2, #48]	; 0x30
 1005044:	e1a030a3 	lsr	r3, r3, #1
 1005048:	e2822001 	add	r2, r2, #1
 100504c:	1afffff6 	bne	100502c <smc_write_phy_register+0x9c>
 1005050:	e59f307c 	ldr	r3, [pc, #124]	; 10050d4 <smc_write_phy_register+0x144>
 1005054:	e3a05000 	mov	r5, #0
 1005058:	e3a02003 	mov	r2, #3
 100505c:	e5cd5040 	strb	r5, [sp, #64]	; 0x40
 1005060:	e59f6070 	ldr	r6, [pc, #112]	; 10050d8 <smc_write_phy_register+0x148>
 1005064:	e1d3b0be 	ldrh	fp, [r3, #14]
 1005068:	e1c320be 	strh	r2, [r3, #14]
 100506c:	e1d330b8 	ldrh	r3, [r3, #8]
 1005070:	e0036006 	and	r6, r3, r6
 1005074:	e7dda005 	ldrb	sl, [sp, r5]
 1005078:	e59f4054 	ldr	r4, [pc, #84]	; 10050d4 <smc_write_phy_register+0x144>
 100507c:	e18a9006 	orr	r9, sl, r6
 1005080:	e3a00ffa 	mov	r0, #1000	; 0x3e8
 1005084:	e1c490b8 	strh	r9, [r4, #8]
 1005088:	e3899004 	orr	r9, r9, #4
 100508c:	eb001a9b 	bl	100bb00 <udelay>
 1005090:	e3a00ffa 	mov	r0, #1000	; 0x3e8
 1005094:	e1c490b8 	strh	r9, [r4, #8]
 1005098:	eb001a98 	bl	100bb00 <udelay>
 100509c:	e1d430b8 	ldrh	r3, [r4, #8]
 10050a0:	e1a0700d 	mov	r7, sp
 10050a4:	e2033002 	and	r3, r3, #2
 10050a8:	e183a00a 	orr	sl, r3, sl
 10050ac:	e7cda005 	strb	sl, [sp, r5]
 10050b0:	e2855001 	add	r5, r5, #1
 10050b4:	e3550041 	cmp	r5, #65	; 0x41
 10050b8:	1affffed 	bne	1005074 <smc_write_phy_register+0xe4>
 10050bc:	e3a00ffa 	mov	r0, #1000	; 0x3e8
 10050c0:	e1c460b8 	strh	r6, [r4, #8]
 10050c4:	eb001a8d 	bl	100bb00 <udelay>
 10050c8:	e1c4b0be 	strh	fp, [r4, #14]
 10050cc:	e28dd044 	add	sp, sp, #68	; 0x44
 10050d0:	e8bd8ef0 	pop	{r4, r5, r6, r7, r9, sl, fp, pc}
 10050d4:	10010000 	andne	r0, r1, r0
 10050d8:	0000fff0 	strdeq	pc, [r0], -r0

010050dc <eth_rx>:
 10050dc:	e59f3140 	ldr	r3, [pc, #320]	; 1005224 <eth_rx+0x148>
 10050e0:	e3a02002 	mov	r2, #2
 10050e4:	e92d40f0 	push	{r4, r5, r6, r7, lr}
 10050e8:	e1c320be 	strh	r2, [r3, #14]
 10050ec:	e1d370b2 	ldrh	r7, [r3, #2]
 10050f0:	e1d360b6 	ldrh	r6, [r3, #6]
 10050f4:	e1d320b4 	ldrh	r2, [r3, #4]
 10050f8:	e3120902 	tst	r2, #32768	; 0x8000
 10050fc:	1a000045 	bne	1005218 <eth_rx+0x13c>
 1005100:	e3a02a0e 	mov	r2, #57344	; 0xe000
 1005104:	e1c320b6 	strh	r2, [r3, #6]
 1005108:	e5933008 	ldr	r3, [r3, #8]
 100510c:	e1a04823 	lsr	r4, r3, #16
 1005110:	e1a04a84 	lsl	r4, r4, #21
 1005114:	e2133b2b 	ands	r3, r3, #44032	; 0xac00
 1005118:	e1a04aa4 	lsr	r4, r4, #21
 100511c:	13a05001 	movne	r5, #1
 1005120:	1a000020 	bne	10051a8 <eth_rx+0xcc>
 1005124:	ea000001 	b	1005130 <eth_rx+0x54>
 1005128:	e3a05000 	mov	r5, #0
 100512c:	ea00001d 	b	10051a8 <eth_rx+0xcc>
 1005130:	e2444004 	sub	r4, r4, #4
 1005134:	e59f20ec 	ldr	r2, [pc, #236]	; 1005228 <eth_rx+0x14c>
 1005138:	e1a04804 	lsl	r4, r4, #16
 100513c:	e1a01924 	lsr	r1, r4, #18
 1005140:	e5920000 	ldr	r0, [r2]
 1005144:	e1a04824 	lsr	r4, r4, #16
 1005148:	ea000003 	b	100515c <eth_rx+0x80>
 100514c:	e592c008 	ldr	ip, [r2, #8]
 1005150:	e780c103 	str	ip, [r0, r3, lsl #2]
 1005154:	e5922000 	ldr	r2, [r2]
 1005158:	e2833001 	add	r3, r3, #1
 100515c:	e1530001 	cmp	r3, r1
 1005160:	e59f20bc 	ldr	r2, [pc, #188]	; 1005224 <eth_rx+0x148>
 1005164:	bafffff8 	blt	100514c <eth_rx+0x70>
 1005168:	e2140003 	ands	r0, r4, #3
 100516c:	0affffed 	beq	1005128 <eth_rx+0x4c>
 1005170:	e59f30b0 	ldr	r3, [pc, #176]	; 1005228 <eth_rx+0x14c>
 1005174:	e5921008 	ldr	r1, [r2, #8]
 1005178:	e5933000 	ldr	r3, [r3]
 100517c:	e3c42003 	bic	r2, r4, #3
 1005180:	e0822003 	add	r2, r2, r3
 1005184:	e3a03000 	mov	r3, #0
 1005188:	e1a0c183 	lsl	ip, r3, #3
 100518c:	e1a0cc31 	lsr	ip, r1, ip
 1005190:	e7c2c003 	strb	ip, [r2, r3]
 1005194:	e2833001 	add	r3, r3, #1
 1005198:	e1530000 	cmp	r3, r0
 100519c:	bafffff9 	blt	1005188 <eth_rx+0xac>
 10051a0:	eaffffe0 	b	1005128 <eth_rx+0x4c>
 10051a4:	eb001a55 	bl	100bb00 <udelay>
 10051a8:	e59f3074 	ldr	r3, [pc, #116]	; 1005224 <eth_rx+0x148>
 10051ac:	e3a00001 	mov	r0, #1
 10051b0:	e1d320b0 	ldrh	r2, [r3]
 10051b4:	e3120001 	tst	r2, #1
 10051b8:	1afffff9 	bne	10051a4 <eth_rx+0xc8>
 10051bc:	e3a02080 	mov	r2, #128	; 0x80
 10051c0:	e1c320b0 	strh	r2, [r3]
 10051c4:	ea000000 	b	10051cc <eth_rx+0xf0>
 10051c8:	eb001a4c 	bl	100bb00 <udelay>
 10051cc:	e59f3050 	ldr	r3, [pc, #80]	; 1005224 <eth_rx+0x148>
 10051d0:	e3a00001 	mov	r0, #1
 10051d4:	e1d320b0 	ldrh	r2, [r3]
 10051d8:	e3120001 	tst	r2, #1
 10051dc:	1afffff9 	bne	10051c8 <eth_rx+0xec>
 10051e0:	e1d320b2 	ldrh	r2, [r3, #2]
 10051e4:	e20770ff 	and	r7, r7, #255	; 0xff
 10051e8:	e2022cff 	and	r2, r2, #65280	; 0xff00
 10051ec:	e1827007 	orr	r7, r2, r7
 10051f0:	e3550000 	cmp	r5, #0
 10051f4:	e1c370b2 	strh	r7, [r3, #2]
 10051f8:	e1d320b2 	ldrh	r2, [r3, #2]
 10051fc:	e1c360b6 	strh	r6, [r3, #6]
 1005200:	1a000004 	bne	1005218 <eth_rx+0x13c>
 1005204:	e59f301c 	ldr	r3, [pc, #28]	; 1005228 <eth_rx+0x14c>
 1005208:	e1a01004 	mov	r1, r4
 100520c:	e5930000 	ldr	r0, [r3]
 1005210:	ebffef67 	bl	1000fb4 <NetReceive>
 1005214:	ea000000 	b	100521c <eth_rx+0x140>
 1005218:	e3a04000 	mov	r4, #0
 100521c:	e1a00004 	mov	r0, r4
 1005220:	e8bd80f0 	pop	{r4, r5, r6, r7, pc}
 1005224:	10010000 	andne	r0, r1, r0
 1005228:	010170a0 	smlatbeq	r1, r0, r0, r7

0100522c <T.62>:
 100522c:	e59f0000 	ldr	r0, [pc, #0]	; 1005234 <T.62+0x8>
 1005230:	ea001a32 	b	100bb00 <udelay>
 1005234:	0007a120 	andeq	sl, r7, r0, lsr #2

01005238 <eth_init>:
 1005238:	e92d40f0 	push	{r4, r5, r6, r7, lr}
 100523c:	e59f4294 	ldr	r4, [pc, #660]	; 10054d8 <eth_init+0x2a0>
 1005240:	e3a02000 	mov	r2, #0
 1005244:	e1c420be 	strh	r2, [r4, #14]
 1005248:	e3a03902 	mov	r3, #32768	; 0x8000
 100524c:	e3a02001 	mov	r2, #1
 1005250:	e1c430b4 	strh	r3, [r4, #4]
 1005254:	e1c420be 	strh	r2, [r4, #14]
 1005258:	e1c430b0 	strh	r3, [r4]
 100525c:	e1d430b0 	ldrh	r3, [r4]
 1005260:	e1a06000 	mov	r6, r0
 1005264:	e3833902 	orr	r3, r3, #32768	; 0x8000
 1005268:	e1c430b0 	strh	r3, [r4]
 100526c:	e3a03000 	mov	r3, #0
 1005270:	e1c430be 	strh	r3, [r4, #14]
 1005274:	e3a0000a 	mov	r0, #10
 1005278:	eb001a20 	bl	100bb00 <udelay>
 100527c:	e3a02000 	mov	r2, #0
 1005280:	e3a03001 	mov	r3, #1
 1005284:	e1c420b4 	strh	r2, [r4, #4]
 1005288:	e1c420b0 	strh	r2, [r4]
 100528c:	e1c430be 	strh	r3, [r4, #14]
 1005290:	e3a02002 	mov	r2, #2
 1005294:	e59f3240 	ldr	r3, [pc, #576]	; 10054dc <eth_init+0x2a4>
 1005298:	e1c430bc 	strh	r3, [r4, #12]
 100529c:	e1c420be 	strh	r2, [r4, #14]
 10052a0:	e3a04000 	mov	r4, #0
 10052a4:	ea000002 	b	10052b4 <eth_init+0x7c>
 10052a8:	eb001a14 	bl	100bb00 <udelay>
 10052ac:	e35400c9 	cmp	r4, #201	; 0xc9
 10052b0:	0a000005 	beq	10052cc <eth_init+0x94>
 10052b4:	e59f321c 	ldr	r3, [pc, #540]	; 10054d8 <eth_init+0x2a0>
 10052b8:	e2844001 	add	r4, r4, #1
 10052bc:	e1d330b0 	ldrh	r3, [r3]
 10052c0:	e3a00001 	mov	r0, #1
 10052c4:	e3130001 	tst	r3, #1
 10052c8:	1afffff6 	bne	10052a8 <eth_init+0x70>
 10052cc:	e59f3204 	ldr	r3, [pc, #516]	; 10054d8 <eth_init+0x2a0>
 10052d0:	e3a02040 	mov	r2, #64	; 0x40
 10052d4:	e1c320b0 	strh	r2, [r3]
 10052d8:	ea000000 	b	10052e0 <eth_init+0xa8>
 10052dc:	eb001a07 	bl	100bb00 <udelay>
 10052e0:	e59f31f0 	ldr	r3, [pc, #496]	; 10054d8 <eth_init+0x2a0>
 10052e4:	e3a00001 	mov	r0, #1
 10052e8:	e1d320b0 	ldrh	r2, [r3]
 10052ec:	e0122000 	ands	r2, r2, r0
 10052f0:	1afffff9 	bne	10052dc <eth_init+0xa4>
 10052f4:	e1d3c0bc 	ldrh	ip, [r3, #12]
 10052f8:	e1a00002 	mov	r0, r2
 10052fc:	e20cc0ff 	and	ip, ip, #255	; 0xff
 1005300:	e1c3c0bc 	strh	ip, [r3, #12]
 1005304:	e1d3c0bc 	ldrh	ip, [r3, #12]
 1005308:	e1c320be 	strh	r2, [r3, #14]
 100530c:	e3a02001 	mov	r2, #1
 1005310:	e1c320b0 	strh	r2, [r3]
 1005314:	e3a02c03 	mov	r2, #768	; 0x300
 1005318:	e3a01902 	mov	r1, #32768	; 0x8000
 100531c:	e1c320b4 	strh	r2, [r3, #4]
 1005320:	ebffff1a 	bl	1004f90 <smc_write_phy_register>
 1005324:	e3a04006 	mov	r4, #6
 1005328:	ea000003 	b	100533c <eth_init+0x104>
 100532c:	ebfffec4 	bl	1004e44 <smc_read_phy_register>
 1005330:	e3100902 	tst	r0, #32768	; 0x8000
 1005334:	0a000004 	beq	100534c <eth_init+0x114>
 1005338:	ebffffbb 	bl	100522c <T.62>
 100533c:	e2544001 	subs	r4, r4, #1
 1005340:	e3a00000 	mov	r0, #0
 1005344:	2afffff8 	bcs	100532c <eth_init+0xf4>
 1005348:	ea000001 	b	1005354 <eth_init+0x11c>
 100534c:	e3540000 	cmp	r4, #0
 1005350:	ca000003 	bgt	1005364 <eth_init+0x12c>
 1005354:	e59f0184 	ldr	r0, [pc, #388]	; 10054e0 <eth_init+0x2a8>
 1005358:	e59f1184 	ldr	r1, [pc, #388]	; 10054e4 <eth_init+0x2ac>
 100535c:	eb000e92 	bl	1008dac <printf>
 1005360:	ea00003f 	b	1005464 <eth_init+0x22c>
 1005364:	e59f117c 	ldr	r1, [pc, #380]	; 10054e8 <eth_init+0x2b0>
 1005368:	e3a00013 	mov	r0, #19
 100536c:	ebffff07 	bl	1004f90 <smc_write_phy_register>
 1005370:	e59f3160 	ldr	r3, [pc, #352]	; 10054d8 <eth_init+0x2a0>
 1005374:	e3a02000 	mov	r2, #0
 1005378:	e1c320be 	strh	r2, [r3, #14]
 100537c:	e59f2168 	ldr	r2, [pc, #360]	; 10054ec <eth_init+0x2b4>
 1005380:	e1c320ba 	strh	r2, [r3, #10]
 1005384:	e3a00001 	mov	r0, #1
 1005388:	ebfffead 	bl	1004e44 <smc_read_phy_register>
 100538c:	e59f115c 	ldr	r1, [pc, #348]	; 10054f0 <eth_init+0x2b8>
 1005390:	e3a04000 	mov	r4, #0
 1005394:	e3a05014 	mov	r5, #20
 1005398:	e3100902 	tst	r0, #32768	; 0x8000
 100539c:	03a01001 	moveq	r1, #1
 10053a0:	e3100901 	tst	r0, #16384	; 0x4000
 10053a4:	13811c01 	orrne	r1, r1, #256	; 0x100
 10053a8:	e3100a02 	tst	r0, #8192	; 0x2000
 10053ac:	13811080 	orrne	r1, r1, #128	; 0x80
 10053b0:	e3100a01 	tst	r0, #4096	; 0x1000
 10053b4:	13811040 	orrne	r1, r1, #64	; 0x40
 10053b8:	e3100b02 	tst	r0, #2048	; 0x800
 10053bc:	13811020 	orrne	r1, r1, #32
 10053c0:	e3a00004 	mov	r0, #4
 10053c4:	ebfffef1 	bl	1004f90 <smc_write_phy_register>
 10053c8:	e3a00004 	mov	r0, #4
 10053cc:	ebfffe9c 	bl	1004e44 <smc_read_phy_register>
 10053d0:	e3a00000 	mov	r0, #0
 10053d4:	e3a01c12 	mov	r1, #4608	; 0x1200
 10053d8:	ebfffeec 	bl	1004f90 <smc_write_phy_register>
 10053dc:	ea00000f 	b	1005420 <eth_init+0x1e8>
 10053e0:	ebfffe97 	bl	1004e44 <smc_read_phy_register>
 10053e4:	e2107020 	ands	r7, r0, #32
 10053e8:	e1a04000 	mov	r4, r0
 10053ec:	1a00000f 	bne	1005430 <eth_init+0x1f8>
 10053f0:	ebffff8d 	bl	100522c <T.62>
 10053f4:	e3140010 	tst	r4, #16
 10053f8:	0a000008 	beq	1005420 <eth_init+0x1e8>
 10053fc:	e59f00f0 	ldr	r0, [pc, #240]	; 10054f4 <eth_init+0x2bc>
 1005400:	e59f10dc 	ldr	r1, [pc, #220]	; 10054e4 <eth_init+0x2ac>
 1005404:	eb000e68 	bl	1008dac <printf>
 1005408:	e59f10d4 	ldr	r1, [pc, #212]	; 10054e4 <eth_init+0x2ac>
 100540c:	e59f00e4 	ldr	r0, [pc, #228]	; 10054f8 <eth_init+0x2c0>
 1005410:	eb000e65 	bl	1008dac <printf>
 1005414:	e1a00007 	mov	r0, r7
 1005418:	e3a01c33 	mov	r1, #13056	; 0x3300
 100541c:	ebfffedb 	bl	1004f90 <smc_write_phy_register>
 1005420:	e2555001 	subs	r5, r5, #1
 1005424:	e3a00001 	mov	r0, #1
 1005428:	2affffec 	bcs	10053e0 <eth_init+0x1a8>
 100542c:	ea000001 	b	1005438 <eth_init+0x200>
 1005430:	e3550000 	cmp	r5, #0
 1005434:	ca000002 	bgt	1005444 <eth_init+0x20c>
 1005438:	e59f00bc 	ldr	r0, [pc, #188]	; 10054fc <eth_init+0x2c4>
 100543c:	e59f10a0 	ldr	r1, [pc, #160]	; 10054e4 <eth_init+0x2ac>
 1005440:	eb000e59 	bl	1008dac <printf>
 1005444:	e3140010 	tst	r4, #16
 1005448:	0a000002 	beq	1005458 <eth_init+0x220>
 100544c:	e59f00a0 	ldr	r0, [pc, #160]	; 10054f4 <eth_init+0x2bc>
 1005450:	e59f108c 	ldr	r1, [pc, #140]	; 10054e4 <eth_init+0x2ac>
 1005454:	eb000e54 	bl	1008dac <printf>
 1005458:	e59f3078 	ldr	r3, [pc, #120]	; 10054d8 <eth_init+0x2a0>
 100545c:	e59f2088 	ldr	r2, [pc, #136]	; 10054ec <eth_init+0x2b4>
 1005460:	e1c320ba 	strh	r2, [r3, #10]
 1005464:	e59f306c 	ldr	r3, [pc, #108]	; 10054d8 <eth_init+0x2a0>
 1005468:	e3a02001 	mov	r2, #1
 100546c:	e1c320be 	strh	r2, [r3, #14]
 1005470:	e1a00006 	mov	r0, r6
 1005474:	ebfffdf4 	bl	1004c4c <smc_get_ethaddr>
 1005478:	e3500000 	cmp	r0, #0
 100547c:	a59f307c 	ldrge	r3, [pc, #124]	; 1005500 <eth_init+0x2c8>
 1005480:	aa000005 	bge	100549c <eth_init+0x264>
 1005484:	e2860008 	add	r0, r6, #8
 1005488:	e3a01000 	mov	r1, #0
 100548c:	e3a02006 	mov	r2, #6
 1005490:	eb001d3f 	bl	100c994 <memset>
 1005494:	e3e00000 	mvn	r0, #0
 1005498:	e8bd80f0 	pop	{r4, r5, r6, r7, pc}
 100549c:	e59f1060 	ldr	r1, [pc, #96]	; 1005504 <eth_init+0x2cc>
 10054a0:	e0811003 	add	r1, r1, r3
 10054a4:	e2412241 	sub	r2, r1, #268435460	; 0x10000004
 10054a8:	e2411231 	sub	r1, r1, #268435459	; 0x10000003
 10054ac:	e2411801 	sub	r1, r1, #65536	; 0x10000
 10054b0:	e2422801 	sub	r2, r2, #65536	; 0x10000
 10054b4:	e5d11000 	ldrb	r1, [r1]
 10054b8:	e5d22000 	ldrb	r2, [r2]
 10054bc:	e1822401 	orr	r2, r2, r1, lsl #8
 10054c0:	e0c320b2 	strh	r2, [r3], #2
 10054c4:	e59f203c 	ldr	r2, [pc, #60]	; 1005508 <eth_init+0x2d0>
 10054c8:	e1530002 	cmp	r3, r2
 10054cc:	1afffff2 	bne	100549c <eth_init+0x264>
 10054d0:	e3a00000 	mov	r0, #0
 10054d4:	e8bd80f0 	pop	{r4, r5, r6, r7, pc}
 10054d8:	10010000 	andne	r0, r1, r0
 10054dc:	00001a10 	andeq	r1, r0, r0, lsl sl
 10054e0:	01011a73 	tsteq	r1, r3, ror sl
 10054e4:	01011a8b 	smlabbeq	r1, fp, sl, r1
 10054e8:	0000ffff 	strdeq	pc, [r0], -pc
 10054ec:	00003810 	andeq	r3, r0, r0, lsl r8
 10054f0:	00000201 	andeq	r0, r0, r1, lsl #4
 10054f4:	01011a94 	tsteq	r1, r4, lsl sl
 10054f8:	01011ab3 	strheq	r1, [r1, -r3]
 10054fc:	01011ad8 	ldrdeq	r1, [r1, -r8]
 1005500:	10010004 	andne	r0, r1, r4
 1005504:	010143f4 	strdeq	r4, [r1, -r4]
 1005508:	1001000a 	andne	r0, r1, sl

0100550c <eth_send>:
 100550c:	e59f3224 	ldr	r3, [pc, #548]	; 1005738 <eth_send+0x22c>
 1005510:	e92d44f0 	push	{r4, r5, r6, r7, sl, lr}
 1005514:	e351003c 	cmp	r1, #60	; 0x3c
 1005518:	a1a04001 	movge	r4, r1
 100551c:	b3a0403c 	movlt	r4, #60	; 0x3c
 1005520:	e0043003 	and	r3, r4, r3
 1005524:	e2833006 	add	r3, r3, #6
 1005528:	e59f220c 	ldr	r2, [pc, #524]	; 100573c <eth_send+0x230>
 100552c:	e1a03443 	asr	r3, r3, #8
 1005530:	e3a01002 	mov	r1, #2
 1005534:	e3530007 	cmp	r3, #7
 1005538:	e1c210be 	strh	r1, [r2, #14]
 100553c:	e1a06000 	mov	r6, r0
 1005540:	e1d270b2 	ldrh	r7, [r2, #2]
 1005544:	c59f01f4 	ldrgt	r0, [pc, #500]	; 1005740 <eth_send+0x234>
 1005548:	e1d250b6 	ldrh	r5, [r2, #6]
 100554c:	ca00001c 	bgt	10055c4 <eth_send+0xb8>
 1005550:	e3833020 	orr	r3, r3, #32
 1005554:	e3a00002 	mov	r0, #2
 1005558:	e3a01000 	mov	r1, #0
 100555c:	e1c200be 	strh	r0, [r2, #14]
 1005560:	e1c230b0 	strh	r3, [r2]
 1005564:	e3a02010 	mov	r2, #16
 1005568:	e59f31cc 	ldr	r3, [pc, #460]	; 100573c <eth_send+0x230>
 100556c:	e1d300bc 	ldrh	r0, [r3, #12]
 1005570:	e3100008 	tst	r0, #8
 1005574:	0a000007 	beq	1005598 <eth_send+0x8c>
 1005578:	e1d300bc 	ldrh	r0, [r3, #12]
 100557c:	e3520000 	cmp	r2, #0
 1005580:	e2002cff 	and	r2, r0, #65280	; 0xff00
 1005584:	e3822008 	orr	r2, r2, #8
 1005588:	e1c320bc 	strh	r2, [r3, #12]
 100558c:	e1d320bc 	ldrh	r2, [r3, #12]
 1005590:	0a000002 	beq	10055a0 <eth_send+0x94>
 1005594:	ea000005 	b	10055b0 <eth_send+0xa4>
 1005598:	e2522001 	subs	r2, r2, #1
 100559c:	1afffff1 	bne	1005568 <eth_send+0x5c>
 10055a0:	e2811001 	add	r1, r1, #1
 10055a4:	e3510005 	cmp	r1, #5
 10055a8:	1affffed 	bne	1005564 <eth_send+0x58>
 10055ac:	ea000058 	b	1005714 <eth_send+0x208>
 10055b0:	e1d320b2 	ldrh	r2, [r3, #2]
 10055b4:	e1a02422 	lsr	r2, r2, #8
 10055b8:	e3120080 	tst	r2, #128	; 0x80
 10055bc:	0a000003 	beq	10055d0 <eth_send+0xc4>
 10055c0:	e59f017c 	ldr	r0, [pc, #380]	; 1005744 <eth_send+0x238>
 10055c4:	e59f117c 	ldr	r1, [pc, #380]	; 1005748 <eth_send+0x23c>
 10055c8:	eb000df7 	bl	1008dac <printf>
 10055cc:	ea000050 	b	1005714 <eth_send+0x208>
 10055d0:	e1d310b2 	ldrh	r1, [r3, #2]
 10055d4:	e2011cff 	and	r1, r1, #65280	; 0xff00
 10055d8:	e1822001 	orr	r2, r2, r1
 10055dc:	e1c320b2 	strh	r2, [r3, #2]
 10055e0:	e1d330b2 	ldrh	r3, [r3, #2]
 10055e4:	ea000000 	b	10055ec <eth_send+0xe0>
 10055e8:	eb000def 	bl	1008dac <printf>
 10055ec:	e2153b02 	ands	r3, r5, #2048	; 0x800
 10055f0:	e59f0154 	ldr	r0, [pc, #340]	; 100574c <eth_send+0x240>
 10055f4:	1afffffb 	bne	10055e8 <eth_send+0xdc>
 10055f8:	e59f213c 	ldr	r2, [pc, #316]	; 100573c <eth_send+0x230>
 10055fc:	e2841006 	add	r1, r4, #6
 1005600:	e1a01801 	lsl	r1, r1, #16
 1005604:	e3a00901 	mov	r0, #16384	; 0x4000
 1005608:	e1c200b6 	strh	r0, [r2, #6]
 100560c:	e5821008 	str	r1, [r2, #8]
 1005610:	e1a02144 	asr	r2, r4, #2
 1005614:	ea000003 	b	1005628 <eth_send+0x11c>
 1005618:	e59f111c 	ldr	r1, [pc, #284]	; 100573c <eth_send+0x230>
 100561c:	e7960103 	ldr	r0, [r6, r3, lsl #2]
 1005620:	e2833001 	add	r3, r3, #1
 1005624:	e5810008 	str	r0, [r1, #8]
 1005628:	e1530002 	cmp	r3, r2
 100562c:	bafffff9 	blt	1005618 <eth_send+0x10c>
 1005630:	e3140002 	tst	r4, #2
 1005634:	13c43003 	bicne	r3, r4, #3
 1005638:	119620b3 	ldrhne	r2, [r6, r3]
 100563c:	159f30f8 	ldrne	r3, [pc, #248]	; 100573c <eth_send+0x230>
 1005640:	e3a010c0 	mov	r1, #192	; 0xc0
 1005644:	11c320b8 	strhne	r2, [r3, #8]
 1005648:	e2142001 	ands	r2, r4, #1
 100564c:	10866004 	addne	r6, r6, r4
 1005650:	15562001 	ldrbne	r2, [r6, #-1]
 1005654:	e59f30e0 	ldr	r3, [pc, #224]	; 100573c <eth_send+0x230>
 1005658:	e59f60dc 	ldr	r6, [pc, #220]	; 100573c <eth_send+0x230>
 100565c:	13822a02 	orrne	r2, r2, #8192	; 0x2000
 1005660:	e1c320b8 	strh	r2, [r3, #8]
 1005664:	e3a00000 	mov	r0, #0
 1005668:	e1c610b0 	strh	r1, [r6]
 100566c:	eb00191e 	bl	100baec <get_timer>
 1005670:	e3a03002 	mov	r3, #2
 1005674:	e1d6a0be 	ldrh	sl, [r6, #14]
 1005678:	e1c630be 	strh	r3, [r6, #14]
 100567c:	e2806c75 	add	r6, r0, #29952	; 0x7500
 1005680:	e2866030 	add	r6, r6, #48	; 0x30
 1005684:	ea000003 	b	1005698 <eth_send+0x18c>
 1005688:	eb001917 	bl	100baec <get_timer>
 100568c:	e1500006 	cmp	r0, r6
 1005690:	23a02001 	movcs	r2, #1
 1005694:	2a000004 	bcs	10056ac <eth_send+0x1a0>
 1005698:	e59f309c 	ldr	r3, [pc, #156]	; 100573c <eth_send+0x230>
 100569c:	e1d300bc 	ldrh	r0, [r3, #12]
 10056a0:	e2100004 	ands	r0, r0, #4
 10056a4:	0afffff7 	beq	1005688 <eth_send+0x17c>
 10056a8:	e3a02000 	mov	r2, #0
 10056ac:	e59f3088 	ldr	r3, [pc, #136]	; 100573c <eth_send+0x230>
 10056b0:	e3520000 	cmp	r2, #0
 10056b4:	e1c3a0be 	strh	sl, [r3, #14]
 10056b8:	0a000018 	beq	1005720 <eth_send+0x214>
 10056bc:	ea000000 	b	10056c4 <eth_send+0x1b8>
 10056c0:	eb00190e 	bl	100bb00 <udelay>
 10056c4:	e59f3070 	ldr	r3, [pc, #112]	; 100573c <eth_send+0x230>
 10056c8:	e3a0000a 	mov	r0, #10
 10056cc:	e1d330b0 	ldrh	r3, [r3]
 10056d0:	e3130001 	tst	r3, #1
 10056d4:	1afffff9 	bne	10056c0 <eth_send+0x1b4>
 10056d8:	ea00000d 	b	1005714 <eth_send+0x208>
 10056dc:	eb001907 	bl	100bb00 <udelay>
 10056e0:	e59f3054 	ldr	r3, [pc, #84]	; 100573c <eth_send+0x230>
 10056e4:	e3a0000a 	mov	r0, #10
 10056e8:	e1d320b0 	ldrh	r2, [r3]
 10056ec:	e3120001 	tst	r2, #1
 10056f0:	1afffff9 	bne	10056dc <eth_send+0x1d0>
 10056f4:	e1d320b2 	ldrh	r2, [r3, #2]
 10056f8:	e20770ff 	and	r7, r7, #255	; 0xff
 10056fc:	e2022cff 	and	r2, r2, #65280	; 0xff00
 1005700:	e1827007 	orr	r7, r2, r7
 1005704:	e1c370b2 	strh	r7, [r3, #2]
 1005708:	e1d320b2 	ldrh	r2, [r3, #2]
 100570c:	e1c350b6 	strh	r5, [r3, #6]
 1005710:	ea000000 	b	1005718 <eth_send+0x20c>
 1005714:	e3a04000 	mov	r4, #0
 1005718:	e1a00004 	mov	r0, r4
 100571c:	e8bd84f0 	pop	{r4, r5, r6, r7, sl, pc}
 1005720:	e1d320bc 	ldrh	r2, [r3, #12]
 1005724:	e2022cff 	and	r2, r2, #65280	; 0xff00
 1005728:	e3822004 	orr	r2, r2, #4
 100572c:	e1c320bc 	strh	r2, [r3, #12]
 1005730:	e1d330bc 	ldrh	r3, [r3, #12]
 1005734:	eaffffe9 	b	10056e0 <eth_send+0x1d4>
 1005738:	0000fffe 	strdeq	pc, [r0], -lr
 100573c:	10010000 	andne	r0, r1, r0
 1005740:	01011afa 	strdeq	r1, [r1, -sl]
 1005744:	01011b1a 	tsteq	r1, sl, lsl fp
 1005748:	01011a8b 	smlabbeq	r1, fp, sl, r1
 100574c:	01011b3a 	tsteq	r1, sl, lsr fp

01005750 <serial_init>:
 1005750:	e59f3028 	ldr	r3, [pc, #40]	; 1005780 <serial_init+0x30>
 1005754:	e3a00000 	mov	r0, #0
 1005758:	e3a02027 	mov	r2, #39	; 0x27
 100575c:	e5830030 	str	r0, [r3, #48]	; 0x30
 1005760:	e5832024 	str	r2, [r3, #36]	; 0x24
 1005764:	e3a02004 	mov	r2, #4
 1005768:	e5832028 	str	r2, [r3, #40]	; 0x28
 100576c:	e282206c 	add	r2, r2, #108	; 0x6c
 1005770:	e583202c 	str	r2, [r3, #44]	; 0x2c
 1005774:	e59f2008 	ldr	r2, [pc, #8]	; 1005784 <serial_init+0x34>
 1005778:	e5832030 	str	r2, [r3, #48]	; 0x30
 100577c:	e12fff1e 	bx	lr
 1005780:	101f1000 	andsne	r1, pc, r0
 1005784:	00000301 	andeq	r0, r0, r1, lsl #6

01005788 <serial_setbrg>:
 1005788:	e12fff1e 	bx	lr

0100578c <serial_tstc>:
 100578c:	e59f3010 	ldr	r3, [pc, #16]	; 10057a4 <serial_tstc+0x18>
 1005790:	e5930018 	ldr	r0, [r3, #24]
 1005794:	e1a00220 	lsr	r0, r0, #4
 1005798:	e2200001 	eor	r0, r0, #1
 100579c:	e2000001 	and	r0, r0, #1
 10057a0:	e12fff1e 	bx	lr
 10057a4:	101f1000 	andsne	r1, pc, r0

010057a8 <T.33>:
 10057a8:	e20000ff 	and	r0, r0, #255	; 0xff
 10057ac:	e59f3010 	ldr	r3, [pc, #16]	; 10057c4 <T.33+0x1c>
 10057b0:	e5932018 	ldr	r2, [r3, #24]
 10057b4:	e3120020 	tst	r2, #32
 10057b8:	1afffffb 	bne	10057ac <T.33+0x4>
 10057bc:	e5830000 	str	r0, [r3]
 10057c0:	e12fff1e 	bx	lr
 10057c4:	101f1000 	andsne	r1, pc, r0

010057c8 <serial_putc>:
 10057c8:	e92d4010 	push	{r4, lr}
 10057cc:	e20040ff 	and	r4, r0, #255	; 0xff
 10057d0:	e354000a 	cmp	r4, #10
 10057d4:	1a000001 	bne	10057e0 <serial_putc+0x18>
 10057d8:	e3a0000d 	mov	r0, #13
 10057dc:	ebfffff1 	bl	10057a8 <T.33>
 10057e0:	e1a00004 	mov	r0, r4
 10057e4:	e8bd4010 	pop	{r4, lr}
 10057e8:	eaffffee 	b	10057a8 <T.33>

010057ec <serial_puts>:
 10057ec:	e92d4030 	push	{r4, r5, lr}
 10057f0:	e1a05000 	mov	r5, r0
 10057f4:	e3a04000 	mov	r4, #0
 10057f8:	ea000000 	b	1005800 <serial_puts+0x14>
 10057fc:	ebfffff1 	bl	10057c8 <serial_putc>
 1005800:	e7d53004 	ldrb	r3, [r5, r4]
 1005804:	e2844001 	add	r4, r4, #1
 1005808:	e2530000 	subs	r0, r3, #0
 100580c:	1afffffa 	bne	10057fc <serial_puts+0x10>
 1005810:	e8bd8030 	pop	{r4, r5, pc}

01005814 <serial_getc>:
 1005814:	e59f301c 	ldr	r3, [pc, #28]	; 1005838 <serial_getc+0x24>
 1005818:	e5932018 	ldr	r2, [r3, #24]
 100581c:	e3120010 	tst	r2, #16
 1005820:	1afffffb 	bne	1005814 <serial_getc>
 1005824:	e5930000 	ldr	r0, [r3]
 1005828:	e3d020ff 	bics	r2, r0, #255	; 0xff
 100582c:	13e00000 	mvnne	r0, #0
 1005830:	15830004 	strne	r0, [r3, #4]
 1005834:	e12fff1e 	bx	lr
 1005838:	101f1000 	andsne	r1, pc, r0

0100583c <__fswab32>:
 100583c:	e1a03c00 	lsl	r3, r0, #24
 1005840:	e2002cff 	and	r2, r0, #65280	; 0xff00
 1005844:	e1833c20 	orr	r3, r3, r0, lsr #24
 1005848:	e1833402 	orr	r3, r3, r2, lsl #8
 100584c:	e20008ff 	and	r0, r0, #16711680	; 0xff0000
 1005850:	e1830420 	orr	r0, r3, r0, lsr #8
 1005854:	e12fff1e 	bx	lr

01005858 <autoscript>:
 1005858:	e92d40f0 	push	{r4, r5, r6, r7, lr}
 100585c:	e1a04000 	mov	r4, r0
 1005860:	e59f0158 	ldr	r0, [pc, #344]	; 10059c0 <autoscript+0x168>
 1005864:	eb001538 	bl	100ad4c <getenv_yesno>
 1005868:	e1a06000 	mov	r6, r0
 100586c:	e1a00004 	mov	r0, r4
 1005870:	eb0014ef 	bl	100ac34 <genimg_get_format>
 1005874:	e3500001 	cmp	r0, #1
 1005878:	e1a05000 	mov	r5, r0
 100587c:	159f0140 	ldrne	r0, [pc, #320]	; 10059c4 <autoscript+0x16c>
 1005880:	1a000023 	bne	1005914 <autoscript+0xbc>
 1005884:	e5940000 	ldr	r0, [r4]
 1005888:	ebffffeb 	bl	100583c <__fswab32>
 100588c:	e59f3134 	ldr	r3, [pc, #308]	; 10059c8 <autoscript+0x170>
 1005890:	e1500003 	cmp	r0, r3
 1005894:	159f0130 	ldrne	r0, [pc, #304]	; 10059cc <autoscript+0x174>
 1005898:	1a000004 	bne	10058b0 <autoscript+0x58>
 100589c:	e1a00004 	mov	r0, r4
 10058a0:	eb0015b2 	bl	100af70 <image_check_hcrc>
 10058a4:	e3500000 	cmp	r0, #0
 10058a8:	1a000002 	bne	10058b8 <autoscript+0x60>
 10058ac:	e59f011c 	ldr	r0, [pc, #284]	; 10059d0 <autoscript+0x178>
 10058b0:	eb000d2b 	bl	1008d64 <puts>
 10058b4:	ea00003b 	b	10059a8 <autoscript+0x150>
 10058b8:	e3560000 	cmp	r6, #0
 10058bc:	0a000004 	beq	10058d4 <autoscript+0x7c>
 10058c0:	e1a00004 	mov	r0, r4
 10058c4:	eb001597 	bl	100af28 <image_check_dcrc>
 10058c8:	e3500000 	cmp	r0, #0
 10058cc:	059f0100 	ldreq	r0, [pc, #256]	; 10059d4 <autoscript+0x17c>
 10058d0:	0afffff6 	beq	10058b0 <autoscript+0x58>
 10058d4:	e5d4301e 	ldrb	r3, [r4, #30]
 10058d8:	e3530006 	cmp	r3, #6
 10058dc:	159f00f4 	ldrne	r0, [pc, #244]	; 10059d8 <autoscript+0x180>
 10058e0:	1a00000b 	bne	1005914 <autoscript+0xbc>
 10058e4:	e5940040 	ldr	r0, [r4, #64]	; 0x40
 10058e8:	ebffffd3 	bl	100583c <__fswab32>
 10058ec:	e2505000 	subs	r5, r0, #0
 10058f0:	059f00e4 	ldreq	r0, [pc, #228]	; 10059dc <autoscript+0x184>
 10058f4:	0a000006 	beq	1005914 <autoscript+0xbc>
 10058f8:	e2844044 	add	r4, r4, #68	; 0x44
 10058fc:	e5146004 	ldr	r6, [r4, #-4]
 1005900:	e1a07004 	mov	r7, r4
 1005904:	e3560000 	cmp	r6, #0
 1005908:	e2844004 	add	r4, r4, #4
 100590c:	1afffffa 	bne	10058fc <autoscript+0xa4>
 1005910:	ea000001 	b	100591c <autoscript+0xc4>
 1005914:	eb000d12 	bl	1008d64 <puts>
 1005918:	ea000003 	b	100592c <autoscript+0xd4>
 100591c:	e2850001 	add	r0, r5, #1
 1005920:	eb000f21 	bl	10095ac <malloc>
 1005924:	e2504000 	subs	r4, r0, #0
 1005928:	1a000001 	bne	1005934 <autoscript+0xdc>
 100592c:	e3a05001 	mov	r5, #1
 1005930:	ea00001c 	b	10059a8 <autoscript+0x150>
 1005934:	e1a02005 	mov	r2, r5
 1005938:	e1a01007 	mov	r1, r7
 100593c:	eb001c2f 	bl	100ca00 <memmove>
 1005940:	e7c46005 	strb	r6, [r4, r5]
 1005944:	e1a00004 	mov	r0, r4
 1005948:	e2845001 	add	r5, r4, #1
 100594c:	ea00000c 	b	1005984 <autoscript+0x12c>
 1005950:	e351000a 	cmp	r1, #10
 1005954:	1a000009 	bne	1005980 <autoscript+0x128>
 1005958:	e3a01000 	mov	r1, #0
 100595c:	e5451001 	strb	r1, [r5, #-1]
 1005960:	e5d03000 	ldrb	r3, [r0]
 1005964:	e1530001 	cmp	r3, r1
 1005968:	0a000003 	beq	100597c <autoscript+0x124>
 100596c:	eb00164e 	bl	100b2ac <run_command>
 1005970:	e3500000 	cmp	r0, #0
 1005974:	b3a05001 	movlt	r5, #1
 1005978:	ba000008 	blt	10059a0 <autoscript+0x148>
 100597c:	e1a00005 	mov	r0, r5
 1005980:	e2855001 	add	r5, r5, #1
 1005984:	e5551001 	ldrb	r1, [r5, #-1]
 1005988:	e3510000 	cmp	r1, #0
 100598c:	1affffef 	bne	1005950 <autoscript+0xf8>
 1005990:	ea000006 	b	10059b0 <autoscript+0x158>
 1005994:	eb001644 	bl	100b2ac <run_command>
 1005998:	e1e05000 	mvn	r5, r0
 100599c:	e1a05fa5 	lsr	r5, r5, #31
 10059a0:	e1a00004 	mov	r0, r4
 10059a4:	eb000e76 	bl	1009384 <free>
 10059a8:	e1a00005 	mov	r0, r5
 10059ac:	e8bd80f0 	pop	{r4, r5, r6, r7, pc}
 10059b0:	e5d05000 	ldrb	r5, [r0]
 10059b4:	e3550000 	cmp	r5, #0
 10059b8:	0afffff8 	beq	10059a0 <autoscript+0x148>
 10059bc:	eafffff4 	b	1005994 <autoscript+0x13c>
 10059c0:	01011b56 	tsteq	r1, r6, asr fp
 10059c4:	01011bab 	smlatbeq	r1, fp, fp, r1
 10059c8:	27051956 	smlsdcs	r5, r6, r9, r1
 10059cc:	01011b5d 	tsteq	r1, sp, asr fp
 10059d0:	01011b6f 	tsteq	r1, pc, ror #22
 10059d4:	01011b7f 	tsteq	r1, pc, ror fp
 10059d8:	01011b8d 	smlabbeq	r1, sp, fp, r1
 10059dc:	01011b9d 	tsteq	r1, sp, lsl fp

010059e0 <do_autoscript>:
 10059e0:	e3520001 	cmp	r2, #1
 10059e4:	e92d4010 	push	{r4, lr}
 10059e8:	d59f4030 	ldrle	r4, [pc, #48]	; 1005a20 <do_autoscript+0x40>
 10059ec:	da000004 	ble	1005a04 <do_autoscript+0x24>
 10059f0:	e5930004 	ldr	r0, [r3, #4]
 10059f4:	e3a01000 	mov	r1, #0
 10059f8:	e3a02010 	mov	r2, #16
 10059fc:	eb001c60 	bl	100cb84 <simple_strtoul>
 1005a00:	e1a04000 	mov	r4, r0
 1005a04:	e1a01004 	mov	r1, r4
 1005a08:	e59f0014 	ldr	r0, [pc, #20]	; 1005a24 <do_autoscript+0x44>
 1005a0c:	eb000ce6 	bl	1008dac <printf>
 1005a10:	e1a00004 	mov	r0, r4
 1005a14:	e3a01000 	mov	r1, #0
 1005a18:	e8bd4010 	pop	{r4, lr}
 1005a1c:	eaffff8d 	b	1005858 <autoscript>
 1005a20:	00007fc0 	andeq	r7, r0, r0, asr #31
 1005a24:	01011bce 	smlabteq	r1, lr, fp, r1

01005a28 <print_num>:
 1005a28:	e1a02001 	mov	r2, r1
 1005a2c:	e1a01000 	mov	r1, r0
 1005a30:	e59f0000 	ldr	r0, [pc, #0]	; 1005a38 <print_num+0x10>
 1005a34:	ea000cdc 	b	1008dac <printf>
 1005a38:	01011c5a 	tsteq	r1, sl, asr ip

01005a3c <do_bdinfo>:
 1005a3c:	e92d4070 	push	{r4, r5, r6, lr}
 1005a40:	e5984000 	ldr	r4, [r8]
 1005a44:	e59f0098 	ldr	r0, [pc, #152]	; 1005ae4 <do_bdinfo+0xa8>
 1005a48:	e5941014 	ldr	r1, [r4, #20]
 1005a4c:	ebfffff5 	bl	1005a28 <print_num>
 1005a50:	e59f0090 	ldr	r0, [pc, #144]	; 1005ae8 <do_bdinfo+0xac>
 1005a54:	e5941010 	ldr	r1, [r4, #16]
 1005a58:	ebfffff2 	bl	1005a28 <print_num>
 1005a5c:	e59f0088 	ldr	r0, [pc, #136]	; 1005aec <do_bdinfo+0xb0>
 1005a60:	e5941018 	ldr	r1, [r4, #24]
 1005a64:	ebffffef 	bl	1005a28 <print_num>
 1005a68:	e59f0080 	ldr	r0, [pc, #128]	; 1005af0 <do_bdinfo+0xb4>
 1005a6c:	e3a01000 	mov	r1, #0
 1005a70:	ebffffec 	bl	1005a28 <print_num>
 1005a74:	e59f0078 	ldr	r0, [pc, #120]	; 1005af4 <do_bdinfo+0xb8>
 1005a78:	e594101c 	ldr	r1, [r4, #28]
 1005a7c:	ebffffe9 	bl	1005a28 <print_num>
 1005a80:	e5941020 	ldr	r1, [r4, #32]
 1005a84:	e59f006c 	ldr	r0, [pc, #108]	; 1005af8 <do_bdinfo+0xbc>
 1005a88:	ebffffe6 	bl	1005a28 <print_num>
 1005a8c:	e59f0068 	ldr	r0, [pc, #104]	; 1005afc <do_bdinfo+0xc0>
 1005a90:	eb000cb3 	bl	1008d64 <puts>
 1005a94:	e1a06004 	mov	r6, r4
 1005a98:	e3a05000 	mov	r5, #0
 1005a9c:	e3a01020 	mov	r1, #32
 1005aa0:	e5d62008 	ldrb	r2, [r6, #8]
 1005aa4:	e2855001 	add	r5, r5, #1
 1005aa8:	e59f0050 	ldr	r0, [pc, #80]	; 1005b00 <do_bdinfo+0xc4>
 1005aac:	eb000cbe 	bl	1008dac <printf>
 1005ab0:	e3550006 	cmp	r5, #6
 1005ab4:	e2866001 	add	r6, r6, #1
 1005ab8:	e3a0103a 	mov	r1, #58	; 0x3a
 1005abc:	1afffff7 	bne	1005aa0 <do_bdinfo+0x64>
 1005ac0:	e59f003c 	ldr	r0, [pc, #60]	; 1005b04 <do_bdinfo+0xc8>
 1005ac4:	eb000ca6 	bl	1008d64 <puts>
 1005ac8:	e5940004 	ldr	r0, [r4, #4]
 1005acc:	ebffec71 	bl	1000c98 <print_IPaddr>
 1005ad0:	e5941000 	ldr	r1, [r4]
 1005ad4:	e59f002c 	ldr	r0, [pc, #44]	; 1005b08 <do_bdinfo+0xcc>
 1005ad8:	eb000cb3 	bl	1008dac <printf>
 1005adc:	e3a00000 	mov	r0, #0
 1005ae0:	e8bd8070 	pop	{r4, r5, r6, pc}
 1005ae4:	01011c6a 	tsteq	r1, sl, ror #24
 1005ae8:	01011c76 	tsteq	r1, r6, ror ip
 1005aec:	01011c7c 	tsteq	r1, ip, ror ip
 1005af0:	01011c88 	smlabbeq	r1, r8, ip, r1
 1005af4:	01011c92 	tsteq	r1, r2, lsl ip
 1005af8:	01011c9b 	tsteq	r1, fp, lsl ip
 1005afc:	01011ca3 	smlatbeq	r1, r3, ip, r1
 1005b00:	01011cb1 	strheq	r1, [r1, -r1]
 1005b04:	01011cb8 	strheq	r1, [r1, -r8]
 1005b08:	01011cc8 	smlabteq	r1, r8, ip, r1

01005b0c <do_go_exec>:
 1005b0c:	e1a03000 	mov	r3, r0
 1005b10:	e52de004 	push	{lr}		; (str lr, [sp, #-4]!)
 1005b14:	e1a00001 	mov	r0, r1
 1005b18:	e1a01002 	mov	r1, r2
 1005b1c:	e12fff33 	blx	r3
 1005b20:	e49df004 	pop	{pc}		; (ldr pc, [sp], #4)

01005b24 <do_go>:
 1005b24:	e3520001 	cmp	r2, #1
 1005b28:	e92d4070 	push	{r4, r5, r6, lr}
 1005b2c:	e1a04002 	mov	r4, r2
 1005b30:	ca000002 	bgt	1005b40 <do_go+0x1c>
 1005b34:	eb000b48 	bl	100885c <cmd_usage>
 1005b38:	e3a04001 	mov	r4, #1
